(dp0
S'inputPath16470'
p1
(lp2
I1
a(lp3
S'job24367'
p4
aa(lp5
I80239
aaI66845018836
aI110058499253
aI0
aI80239
asS'inputPath3662'
p6
(lp7
I1
a(lp8
S'job5221'
p9
aa(lp10
I16502
aaI5992345771
aI9925351004
aI0
aI-63737
asS'inputPath3664'
p11
(lp12
I1
a(lp13
S'job5223'
p14
aa(lp15
I16504
aaI26820219023
aI19354663062
aI0
aI2
asS'inputPath4891'
p16
(lp17
I1
a(lp18
S'job7084'
p19
aa(lp20
I22714
aaI2569335929
aI6378887349
aI0
aI6210
asS'inputPath3669'
p21
(lp22
I1
a(lp23
S'job5232'
p24
aa(lp25
I16532
aaI1597173533
aI1664969712
aI0
aI-6182
asS'inputPath9103'
p26
(lp27
I1
a(lp28
S'job13542'
p29
aa(lp30
I43461
aaI1729011966
aI1972242206
aI0
aI26929
asS'inputPath9100'
p31
(lp32
I1
a(lp33
S'job13544'
p34
aa(lp35
I43463
aaI3953358725
aI3046550189
aI0
aI2
asS'inputPath3198'
p36
(lp37
I1
a(lp38
S'job4545'
p39
aa(lp40
I14076
aaI26943635305
aI12351622757
aI0
aI-29387
asS'inputPath10852'
p41
(lp42
I1
a(lp43
S'job16228'
p44
aa(lp45
I54302
aaI113042513312
aI63399627514
aI0
aI40226
asS'inputPath13746'
p46
(lp47
I1
a(lp48
S'job20354'
p49
aa(lp50
I66438
aaI3290719236
aI5040192416
aI0
aI12136
asS'inputPath12611'
p51
(lp52
I1
a(lp53
S'job18840'
p54
aa(lp55
I62850
aaI1278545670
aI2841318768
aI0
aI-3588
asS'inputPath12617'
p56
(lp57
I1
a(lp58
S'job18847'
p59
aa(lp60
I62868
aaI1376877975
aI2208075750
aI0
aI18
asS'inputPath15136'
p61
(lp62
I1
a(lp63
S'job22390'
p64
aa(lp65
I72765
aaI5682323558
aI4703548857
aI0
aI9897
asS'inputPath14887'
p66
(lp67
I1
a(lp68
S'job22001'
p69
aa(lp70
I71344
aaI28216471294
aI31433012323
aI0
aI-1421
asS'inputPath6015'
p71
(lp72
I1
a(lp73
S'job8956'
p74
aa(lp75
I27255
aaI73364489537
aI104366695223
aI0
aI-44089
asS'inputPath9575'
p76
(lp77
I1
a(lp78
S'job14191'
p79
aa(lp80
I45913
aaI10453768162
aI27622580636
aI0
aI18658
asS'inputPath2220'
p81
(lp82
I2
a(lp83
S'job3199'
p84
aS'job3420'
p85
aa(lp86
I9310
aI10534
aaI58267165668
aI44453664982
aI1224
aI-36603
asS'inputPath2221'
p87
(lp88
I1
a(lp89
S'job2981'
p90
aa(lp91
I8091
aaI58267165668
aI44428422988
aI0
aI-2443
asS'inputPath9476'
p92
(lp93
I1
a(lp94
S'job14094'
p95
aa(lp96
I45542
aaI2634733613
aI1432810711
aI0
aI37451
asS'inputPath13626'
p97
(lp98
I1
a(lp99
S'job20201'
p100
aa(lp101
I65809
aaI3290559230
aI7666451824
aI0
aI20267
asS'inputPath10664'
p102
(lp103
I1
a(lp104
S'job15944'
p105
aa(lp106
I52291
aaI15937955393
aI11410607217
aI0
aI-13518
asS'inputPath10859'
p107
(lp108
I1
a(lp109
S'job16237'
p110
aa(lp111
I54335
aaI1584185432
aI794530352
aI0
aI2044
asS'inputPath9470'
p112
(lp113
I1
a(lp114
S'job14029'
p115
aa(lp116
I45216
aaI2904318062
aI5651511722
aI0
aI-9119
asS'inputPath10783'
p117
(lp118
I1
a(lp119
S'job16129'
p120
aa(lp121
I53566
aaI6466910322
aI5594825673
aI0
aI8350
asS'inputPath4113'
p122
(lp123
I1
a(lp124
S'job5922'
p125
aa(lp126
I18614
aaI40340415578
aI136149757580
aI0
aI-34952
asS'inputPath10781'
p127
(lp128
I1
a(lp129
S'job16127'
p130
aa(lp131
I53557
aaI15759215517
aI11392378085
aI0
aI34943
asS'inputPath11710'
p132
(lp133
I1
a(lp134
S'job17540'
p135
aa(lp136
I59134
aaI57429190609
aI298303478942
aI0
aI5577
asS'inputPath11717'
p137
(lp138
I1
a(lp139
S'job17549'
p140
aa(lp141
I59152
aaI9303164669
aI35552205582
aI0
aI18
asS'inputPath13685'
p142
(lp143
I1
a(lp144
S'job20277'
p145
aa(lp146
I66186
aaI1843576473
aI2939951841
aI0
aI7034
asS'inputPath12627'
p147
(lp148
I1
a(lp149
S'job18863'
p150
aa(lp151
I62924
aaI2940010387
aI6041345724
aI0
aI-3262
asS'inputPath4050'
p152
(lp153
I1
a(lp154
S'job5807'
p155
aa(lp156
I18279
aaI306461208641
aI103059771976
aI0
aI-44645
asS'inputPath3328'
p157
(lp158
I1
a(lp159
S'job4730'
p160
aa(lp161
I14616
aaI626387259781
aI1302328307515
aI0
aI-3663
asS'inputPath12624'
p162
(lp163
I1
a(lp164
S'job18891'
p165
aa(lp166
I62976
aaI921888676291
aI1214283176868
aI0
aI48360
asS'inputPath8232'
p167
(lp168
I1
a(lp169
S'job12309'
p170
aa(lp171
I38886
aaI115879314814
aI64018350881
aI0
aI-24090
asS'inputPath11980'
p172
(lp173
I1
a(lp174
S'job17924'
p175
aa(lp176
I60193
aaI36078040024
aI30929463693
aI0
aI21307
asS'inputPath3327'
p177
(lp178
I22
a(lp179
S'job4753'
p180
aS'job4754'
p181
aS'job4755'
p182
aS'job4758'
p183
aS'job4767'
p184
aS'job4768'
p185
aS'job4770'
p186
aS'job4771'
p187
aS'job4772'
p188
aS'job4773'
p189
aS'job4789'
p190
aS'job4802'
p191
aS'job4814'
p192
aS'job4815'
p193
aS'job4846'
p194
aS'job4884'
p195
aS'job4935'
p196
aS'job4944'
p197
aS'job4954'
p198
aS'job19993'
p199
aS'job20360'
p200
aS'job20972'
p201
aa(lp202
I14710
aI14710
aI14710
aI14712
aI14713
aI14713
aI14713
aI14713
aI14713
aI14713
aI14800
aI14821
aI14867
aI14875
aI14941
aI15067
aI15268
aI15329
aI15389
aI65191
aI66455
aI68395
aaI626627697492
aI1302345926847
aI53685
aI-45483
asS'inputPath7702'
p203
(lp204
I2
a(lp205
S'job11473'
p206
aS'job11482'
p207
aa(lp208
I34924
aI34931
aaI562951803272
aI536104030295
aI7
aI-33471
asS'inputPath11987'
p209
(lp210
I1
a(lp211
S'job17941'
p212
aa(lp213
I60239
aaI2563576553
aI8370649268
aI0
aI25308
asS'inputPath11984'
p214
(lp215
I1
a(lp216
S'job17937'
p217
aa(lp218
I60230
aaI18701861058
aI39692798525
aI0
aI-9
asS'inputPath14743'
p219
(lp220
I1
a(lp221
S'job21769'
p222
aa(lp223
I70612
aaI196770306937
aI228913909128
aI0
aI10382
asS'inputPath14761'
p224
(lp225
I1
a(lp226
S'job21799'
p227
aa(lp228
I70702
aaI30888966224
aI33835282006
aI0
aI90
asS'inputPath14764'
p229
(lp230
I1
a(lp231
S'job21803'
p232
aa(lp233
I70712
aaI1883046557
aI1596226075
aI0
aI10
asS'inputPath737'
p234
(lp235
I1
a(lp236
S'job950'
p237
aa(lp238
I3080
aaI116485446261
aI62656203829
aI0
aI-67632
asS'inputPath4735'
p239
(lp240
I1
a(lp241
S'job6844'
p242
aa(lp243
I21825
aaI19813515402
aI24899131850
aI0
aI18745
asS'inputPath12312'
p244
(lp245
I1
a(lp246
S'job18392'
p247
aa(lp248
I61599
aaI5905851618
aI5141870309
aI0
aI39774
asS'inputPath11067'
p249
(lp250
I1
a(lp251
S'job16569'
p252
aa(lp253
I56453
aaI112897099621
aI63288966964
aI0
aI-5146
asS'inputPath3062'
p254
(lp255
I1
a(lp256
S'job4312'
p257
aa(lp258
I13397
aaI109714558932
aI451952989071
aI0
aI-43056
asS'inputPath10587'
p259
(lp260
I1
a(lp261
S'job15848'
p262
aa(lp263
I51788
aaI4700424856
aI6632064973
aI0
aI38391
asS'inputPath9036'
p264
(lp265
I1
a(lp266
S'job13452'
p267
aa(lp268
I43064
aaI40928454960
aI77955762806
aI0
aI-8724
asS'inputPath6319'
p269
(lp270
I1
a(lp271
S'job9437'
p272
aa(lp273
I29120
aaI14921213033
aI27970736871
aI0
aI-13944
asS'inputPath12467'
p274
(lp275
I1
a(lp276
S'job18816'
p277
aa(lp278
I62714
aaI2790252784
aI2976071851
aI0
aI33594
asS'inputPath3269'
p279
(lp280
I1
a(lp281
S'job4651'
p282
aa(lp283
I14358
aaI23886753762
aI45430391822
aI0
aI-48356
asS'inputPath13999'
p284
(lp285
I1
a(lp286
S'job20668'
p287
aa(lp288
I67425
aaI47128616115
aI78036974234
aI0
aI53067
asS'inputPath13998'
p289
(lp290
I1
a(lp291
S'job20667'
p292
aa(lp293
I67421
aaI53867489638
aI68943994723
aI0
aI-4
asS'inputPath9484'
p294
(lp295
I1
a(lp296
S'job14054'
p297
aa(lp298
I45343
aaI4746424428
aI7530636857
aI0
aI-22078
asS'inputPath4804'
p299
(lp300
I1
a(lp301
S'job6961'
p302
aa(lp303
I22277
aaI81726875981
aI33400457708
aI0
aI-23066
asS'inputPath13992'
p304
(lp305
I1
a(lp306
S'job20660'
p307
aa(lp308
I67366
aaI3093665796
aI2067632005
aI0
aI45089
asS'inputPath13991'
p309
(lp310
I1
a(lp311
S'job20663'
p312
aa(lp313
I67376
aaI3093665796
aI2065369500
aI0
aI10
asS'inputPath11212'
p314
(lp315
I1
a(lp316
S'job16795'
p317
aa(lp318
I57630
aaI175385333692
aI62752017620
aI0
aI-9746
asS'inputPath5632'
p319
(lp320
I1
a(lp321
S'job8253'
p322
aa(lp323
I25442
aaI934067601575
aI2877428145199
aI0
aI-32188
asS'inputPath5633'
p324
(lp325
I1
a(lp326
S'job8254'
p327
aa(lp328
I25444
aaI3504666369
aI9108371906
aI0
aI2
asS'inputPath13773'
p329
(lp330
I1
a(lp331
S'job20388'
p332
aa(lp333
I66595
aaI38267292889
aI296566351917
aI0
aI41151
asS'inputPath2915'
p334
(lp335
I1
a(lp336
S'job4053'
p337
aa(lp338
I12663
aaI59270050999
aI36420143350
aI0
aI-53932
asS'inputPath15205'
p339
(lp340
I1
a(lp341
S'job22493'
p342
aa(lp343
I73412
aaI517865127974
aI292740108248
aI0
aI60749
asS'inputPath16518'
p344
(lp345
I1
a(lp346
S'job24435'
p347
aa(lp348
I80687
aaI4740813962
aI13531701428
aI0
aI7275
asS'inputPath14046'
p349
(lp350
I1
a(lp351
S'job20727'
p352
aa(lp353
I67658
aaI1979155081
aI2259205146
aI0
aI-13029
asS'inputPath10465'
p354
(lp355
I1
a(lp356
S'job15682'
p357
aa(lp358
I50861
aaI13246908264
aI4472438928
aI0
aI-16797
asS'inputPath15294'
p359
(lp360
I1
a(lp361
S'job22632'
p362
aa(lp363
I74316
aaI8801573902
aI12105784935
aI0
aI23455
asS'inputPath14095'
p364
(lp365
I1
a(lp366
S'job20788'
p367
aa(lp368
I67869
aaI2013344077
aI2097568390
aI0
aI-6447
asS'inputPath8209'
p369
(lp370
I1
a(lp371
S'job12268'
p372
aa(lp373
I38591
aaI31998818684
aI58152707985
aI0
aI-29278
asS'inputPath1231'
p374
(lp375
I1
a(lp376
S'job1588'
p377
aa(lp378
I4590
aaI1317498514
aI1366637944
aI0
aI-34001
asS'inputPath14164'
p379
(lp380
I1
a(lp381
S'job20868'
p382
aa(lp383
I68051
aaI466057342575
aI1245851157629
aI0
aI63461
asS'inputPath14162'
p384
(lp385
I1
a(lp386
S'job20865'
p387
aa(lp388
I68036
aaI40493043997
aI171983976981
aI0
aI-15
asS'inputPath1236'
p389
(lp390
I1
a(lp391
S'job1602'
p392
aa(lp393
I4617
aaI77634498120
aI78184151165
aI0
aI-63419
asS'inputPath11769'
p394
(lp395
I1
a(lp396
S'job17609'
p397
aa(lp398
I59348
aaI33514712260
aI246573646844
aI0
aI54731
asS'inputPath14440'
p399
(lp400
I1
a(lp401
S'job21308'
p402
aa(lp403
I69389
aaI5430818487
aI19304404278
aI0
aI10041
asS'inputPath8569'
p404
(lp405
I1
a(lp406
S'job12806'
p407
aa(lp408
I40758
aaI133406668956
aI260458772529
aI0
aI-28631
asS'inputPath14169'
p409
(lp410
I1
a(lp411
S'job20882'
p412
aa(lp413
I68085
aaI6311412190
aI21739485868
aI0
aI27327
asS'inputPath4609'
p414
(lp415
I1
a(lp416
S'job6654'
p417
aa(lp418
I21039
aaI2561796376
aI2066570218
aI0
aI-47046
asS'inputPath4541'
p419
(lp420
I1
a(lp421
S'job6560'
p422
aa(lp423
I20699
aaI2532262297
aI1699424663
aI0
aI-340
asS'inputPath187'
p424
(lp425
I1
a(lp426
S'job288'
p427
aa(lp428
I1530
aaI2873230019
aI5357297983
aI0
aI-19169
asS'inputPath4542'
p429
(lp430
I1
a(lp431
S'job6561'
p432
aa(lp433
I20706
aaI2008526250
aI1408634897
aI0
aI19176
asS'inputPath17089'
p434
(lp435
I1
a(lp436
S'job25332'
p437
aa(lp438
I86102
aaI208565863787
aI223754830253
aI0
aI65396
asS'inputPath14618'
p439
(lp440
I1
a(lp441
S'job21586'
p442
aa(lp443
I70325
aaI169702192273
aI939428611882
aI0
aI-15777
asS'inputPath4547'
p444
(lp445
I1
a(lp446
S'job6566'
p447
aa(lp448
I20725
aaI1815426171
aI1267627265
aI0
aI-49600
asS'inputPath181'
p449
(lp450
I1
a(lp451
S'job282'
p452
aa(lp453
I1514
aaI122332860631
aI47221899872
aI0
aI-19211
asS'inputPath17087'
p454
(lp455
I1
a(lp456
S'job25330'
p457
aa(lp458
I86098
aaI108952436819
aI479679661833
aI0
aI84584
asS'inputPath4423'
p459
(lp460
I1
a(lp461
S'job6367'
p462
aa(lp463
I20053
aaI1158535451
aI663714920
aI0
aI-66045
asS'inputPath17082'
p464
(lp465
I1
a(lp466
S'job25323'
p467
aa(lp468
I86060
aaI2239592331
aI1992684196
aI0
aI66007
asS'inputPath744'
p469
(lp470
I1
a(lp471
S'job957'
p472
aa(lp473
I3087
aaI33473169666
aI37249210372
aI0
aI-82973
asS'inputPath13495'
p474
(lp475
I1
a(lp476
S'job20025'
p477
aa(lp478
I65255
aaI1501249532
aI3682283513
aI0
aI62168
asS'inputPath10922'
p479
(lp480
I1
a(lp481
S'job16338'
p482
aa(lp483
I55052
aaI64866564507
aI25468311674
aI0
aI-10203
asS'inputPath10904'
p484
(lp485
I1
a(lp486
S'job16310'
p487
aa(lp488
I54941
aaI2291583528
aI3836982069
aI0
aI-111
asS'inputPath15766'
p489
(lp490
I1
a(lp491
S'job23285'
p492
aa(lp493
I76433
aaI38724698047
aI141697079006
aI0
aI21492
asS'inputPath15060'
p494
(lp495
I1
a(lp496
S'job22270'
p497
aa(lp498
I72214
aaI2252825060
aI4424723290
aI0
aI-4219
asS'inputPath10536'
p499
(lp500
I1
a(lp501
S'job15962'
p502
aa(lp503
I52318
aaI125761655035
aI109960896388
aI0
aI-19896
asS'inputPath10537'
p504
(lp505
I1
a(lp506
S'job15778'
p507
aa(lp508
I51418
aaI125761655035
aI109789026676
aI0
aI-900
asS'inputPath10530'
p509
(lp510
I1
a(lp511
S'job15767'
p512
aa(lp513
I51363
aaI4231351631
aI9069079380
aI0
aI-55
asS'inputPath8789'
p514
(lp515
I1
a(lp516
S'job13120'
p517
aa(lp518
I41768
aaI2731707051
aI1432549119
aI0
aI-9595
asS'inputPath15066'
p519
(lp520
I1
a(lp521
S'job22276'
p522
aa(lp523
I72235
aaI1967244342
aI6918003686
aI0
aI30467
asS'inputPath8885'
p524
(lp525
I1
a(lp526
S'job13248'
p527
aa(lp528
I42362
aaI26348419595
aI47830901068
aI0
aI-29873
asS'inputPath6888'
p529
(lp530
I1
a(lp531
S'job10396'
p532
aa(lp533
I32293
aaI2264117347
aI3006472218
aI0
aI-10069
asS'inputPath10236'
p534
(lp535
I1
a(lp536
S'job15343'
p537
aa(lp538
I49485
aaI1105017104
aI2249341541
aI0
aI17192
asS'inputPath6330'
p539
(lp540
I1
a(lp541
S'job9457'
p542
aa(lp543
I29196
aaI6233113611
aI20639069933
aI0
aI-20289
asS'inputPath13318'
p544
(lp545
I1
a(lp546
S'job19780'
p547
aa(lp548
I64842
aaI465497681067
aI1245747655836
aI0
aI35646
asS'inputPath16545'
p549
(lp550
I1
a(lp551
S'job24495'
p552
aa(lp553
I81151
aaI3831720804
aI11243774174
aI0
aI16309
asS'inputPath1097'
p554
(lp555
I1
a(lp556
S'job1386'
p557
aa(lp558
I4005
aaI1689106109328
aI4302631645102
aI0
aI-77146
asS'inputPath4978'
p559
(lp560
I1
a(lp561
S'job7199'
p562
aa(lp563
I23020
aaI1284260617
aI700672043
aI0
aI19015
asS'inputPath9086'
p564
(lp565
I1
a(lp566
S'job13520'
p567
aa(lp568
I43350
aaI1295494517
aI2413062690
aI0
aI20330
asS'inputPath6884'
p569
(lp570
I1
a(lp571
S'job10390'
p572
aa(lp573
I32252
aaI127650233178
aI183305779915
aI0
aI-11098
asS'inputPath16797'
p574
(lp575
I1
a(lp576
S'job24891'
p577
aa(lp578
I84063
aaI485362764838
aI362751168080
aI0
aI51811
asS'inputPath6723'
p579
(lp580
I1
a(lp581
S'job10115'
p582
aa(lp583
I31286
aaI7218256487
aI3930558406
aI0
aI-52777
asS'inputPath2616'
p584
(lp585
I1
a(lp586
S'job3548'
p587
aa(lp588
I11120
aaI2260892990
aI1277921027
aI0
aI-20166
asS'inputPath13960'
p589
(lp590
I1
a(lp591
S'job20622'
p592
aa(lp593
I67281
aaI37876944881
aI26405938371
aI0
aI56161
asS'inputPath6251'
p594
(lp595
I1
a(lp596
S'job9330'
p597
aa(lp598
I28793
aaI1609292680
aI1713629432
aI0
aI-38488
asS'inputPath9914'
p599
(lp600
I1
a(lp601
S'job14730'
p602
aa(lp603
I47383
aaI74892578078
aI96577339411
aI0
aI18590
asS'inputPath6237'
p604
(lp605
I1
a(lp606
S'job9307'
p607
aa(lp608
I28698
aaI24174734226
aI22925109689
aI0
aI-18685
asS'inputPath2962'
p609
(lp610
I1
a(lp611
S'job4121'
p612
aa(lp613
I12877
aaI2709843934
aI2179865792
aI0
aI-15821
asS'inputPath13745'
p614
(lp615
I1
a(lp616
S'job20353'
p617
aa(lp618
I66437
aaI1751212428
aI2907043948
aI0
aI53560
asS'inputPath13841'
p619
(lp620
I1
a(lp621
S'job20481'
p622
aa(lp623
I66835
aaI7658828363
aI27272559490
aI0
aI398
asS'inputPath10046'
p624
(lp625
I1
a(lp626
S'job14978'
p627
aa(lp628
I48207
aaI4954125146
aI6698900522
aI0
aI-18628
asS'inputPath13349'
p629
(lp630
I1
a(lp631
S'job19816'
p632
aa(lp633
I64894
aaI2519754904
aI2797666487
aI0
aI16687
asS'inputPath6903'
p634
(lp635
I1
a(lp636
S'job10426'
p637
aa(lp638
I32359
aaI563954019463
aI212793911204
aI0
aI-32535
asS'inputPath5563'
p639
(lp640
I1
a(lp641
S'job8149'
p642
aa(lp643
I25232
aaI1555657232
aI4567852619
aI0
aI-7127
asS'inputPath1661'
p644
(lp645
I1
a(lp646
S'job2229'
p647
aa(lp648
I6087
aaI953063700412
aI1169659683902
aI0
aI-19145
asS'inputPath11663'
p649
(lp650
I1
a(lp651
S'job17471'
p652
aa(lp653
I58852
aaI135682925248
aI453182717839
aI0
aI52765
asS'inputPath118'
p654
(lp655
I1
a(lp656
S'job179'
p657
aa(lp658
I922
aaI10909108433
aI17121705063
aI0
aI-57930
asS'inputPath11660'
p659
(lp660
I1
a(lp661
S'job17468'
p662
aa(lp663
I58846
aaI2817458466
aI26043207251
aI0
aI57924
asS'inputPath5990'
p664
(lp665
I1
a(lp666
S'job8927'
p667
aa(lp668
I27157
aaI2750925437
aI4520989778
aI0
aI-31689
asS'inputPath14898'
p669
(lp670
I1
a(lp671
S'job22015'
p672
aa(lp673
I71394
aaI1257761730
aI1401992514
aI0
aI44237
asS'inputPath11664'
p674
(lp675
I1
a(lp676
S'job17472'
p677
aa(lp678
I58854
aaI3634126497
aI14212319148
aI0
aI-12540
asS'inputPath11102'
p679
(lp680
I1
a(lp681
S'job16631'
p682
aa(lp683
I56884
aaI140605477148
aI52261499592
aI0
aI-1970
asS'inputPath15362'
p684
(lp685
I1
a(lp686
S'job22729'
p687
aa(lp688
I74802
aaI1235192071
aI1711987074
aI0
aI17918
asS'inputPath445'
p689
(lp690
I1
a(lp691
S'job596'
p692
aa(lp693
I2171
aaI73166113705
aI28775308527
aI0
aI-72631
asS'inputPath11668'
p694
(lp695
I1
a(lp696
S'job17476'
p697
aa(lp698
I58862
aaI4774766123
aI37779920974
aI0
aI56691
asS'inputPath6532'
p699
(lp700
I1
a(lp701
S'job9797'
p702
aa(lp703
I30396
aaI1952951292
aI2305431229
aI0
aI-28466
asS'inputPath1462'
p704
(lp705
I1
a(lp706
S'job1918'
p707
aa(lp708
I5347
aaI16746336605
aI11876550574
aI0
aI-25049
asS'inputPath7449'
p709
(lp710
I1
a(lp711
S'job11155'
p712
aa(lp713
I34204
aaI5582791908
aI15684285880
aI0
aI28857
asS'inputPath7448'
p714
(lp715
I1
a(lp716
S'job11790'
p717
aa(lp718
I35715
aaI5582791908
aI15525688782
aI0
aI1511
asS'inputPath3968'
p719
(lp720
I1
a(lp721
S'job6711'
p722
aa(lp723
I21216
aaI1167170488
aI1056140199
aI0
aI-14499
asS'inputPath3969'
p724
(lp725
I1
a(lp726
S'job5708'
p727
aa(lp728
I18019
aaI1681885755
aI1444638815
aI0
aI-3197
asS'inputPath9555'
p729
(lp730
I1
a(lp731
S'job14161'
p732
aa(lp733
I45813
aaI7442352784
aI15119649438
aI0
aI27794
asS'inputPath11060'
p734
(lp735
I1
a(lp736
S'job16559'
p737
aa(lp738
I56359
aaI3953967118
aI19940333578
aI0
aI10546
asS'inputPath13772'
p739
(lp740
I1
a(lp741
S'job20387'
p742
aa(lp743
I66592
aaI1101989496
aI1892634627
aI0
aI10233
asS'inputPath3962'
p744
(lp745
I1
a(lp746
S'job5680'
p747
aa(lp748
I17967
aaI119718364462
aI106299503965
aI0
aI-48625
asS'inputPath11800'
p749
(lp750
I1
a(lp751
S'job17646'
p752
aa(lp753
I59502
aaI69318912292
aI420431098940
aI0
aI41535
asS'inputPath6492'
p754
(lp755
I1
a(lp756
S'job9843'
p757
aa(lp758
I30607
aaI1432768113
aI2612177465
aI0
aI-28895
asS'inputPath13401'
p759
(lp760
I1
a(lp761
S'job19890'
p762
aa(lp763
I65023
aaI8523806792
aI41135871265
aI0
aI34416
asS'inputPath7444'
p764
(lp765
I1
a(lp766
S'job11148'
p767
aa(lp768
I34185
aaI12020681116
aI10417995017
aI0
aI-30838
asS'inputPath7294'
p769
(lp770
I1
a(lp771
S'job10939'
p772
aa(lp773
I33600
aaI10790907476
aI7098866712
aI0
aI-585
asS'inputPath7527'
p774
(lp775
I1
a(lp776
S'job11253'
p777
aa(lp778
I34435
aaI36926461302
aI163643372161
aI0
aI835
asS'inputPath2048'
p779
(lp780
I1
a(lp781
S'job2726'
p782
aa(lp783
I6935
aaI2361438373
aI2655011839
aI0
aI-27500
asS'inputPath6427'
p784
(lp785
I1
a(lp786
S'job9613'
p787
aa(lp788
I29751
aaI2987421685
aI5442218462
aI0
aI22816
asS'inputPath5464'
p789
(lp790
I1
a(lp791
S'job7986'
p792
aa(lp793
I24591
aaI114392681481
aI63825035017
aI0
aI-5160
asS'inputPath6422'
p794
(lp795
I1
a(lp796
S'job9600'
p797
aa(lp798
I29725
aaI111889667686
aI63054289911
aI0
aI5134
asS'inputPath14540'
p799
(lp800
I1
a(lp801
S'job21469'
p802
aa(lp803
I69806
aaI110000091494
aI46181586665
aI0
aI40081
asS'inputPath7687'
p804
(lp805
I1
a(lp806
S'job11455'
p807
aa(lp808
I34888
aaI1573925075
aI3146880459
aI0
aI-34918
asS'inputPath15050'
p809
(lp810
I1
a(lp811
S'job22257'
p812
aa(lp813
I72151
aaI707439352461
aI2140846922128
aI0
aI37263
asS'inputPath2040'
p814
(lp815
I1
a(lp816
S'job2715'
p817
aa(lp818
I6901
aaI24192084313
aI11897601778
aI0
aI-65250
asS'inputPath8362'
p819
(lp820
I1
a(lp821
S'job12501'
p822
aa(lp823
I40020
aaI16637424622
aI11373147528
aI0
aI33119
asS'inputPath5542'
p824
(lp825
I1
a(lp826
S'job8118'
p827
aa(lp828
I25171
aaI32442085691
aI183272001963
aI0
aI-14849
asS'inputPath2047'
p829
(lp830
I1
a(lp831
S'job2725'
p832
aa(lp833
I6935
aaI33619161357
aI112701947772
aI0
aI-18236
asS'inputPath13347'
p834
(lp835
I1
a(lp836
S'job19814'
p837
aa(lp838
I64894
aaI1934392286
aI7794325622
aI0
aI57959
asS'inputPath3315'
p839
(lp840
I1
a(lp841
S'job4713'
p842
aa(lp843
I14552
aaI1132266368
aI4421717636
aI0
aI-50342
asS'inputPath14869'
p844
(lp845
I1
a(lp846
S'job21967'
p847
aa(lp848
I71219
aaI2244277150
aI5896754817
aI0
aI56667
asS'inputPath5533'
p849
(lp850
I1
a(lp851
S'job8107'
p852
aa(lp853
I25092
aaI32385711847
aI185268472681
aI0
aI-46127
asS'inputPath10254'
p854
(lp855
I1
a(lp856
S'job15370'
p857
aa(lp858
I49594
aaI26710453500
aI10736111267
aI0
aI24502
asS'inputPath15455'
p859
(lp860
I1
a(lp861
S'job22865'
p862
aa(lp863
I75266
aaI287621773313
aI423511873596
aI0
aI25672
asS'inputPath8422'
p864
(lp865
I1
a(lp866
S'job12600'
p867
aa(lp868
I40240
aaI29681605217
aI31635723217
aI0
aI-35026
asS'inputPath9085'
p869
(lp870
I1
a(lp871
S'job13635'
p872
aa(lp873
I43854
aaI1295494517
aI2288709590
aI0
aI3614
asS'inputPath12269'
p874
(lp875
I1
a(lp876
S'job18327'
p877
aa(lp878
I61407
aaI223513582211
aI295486855952
aI0
aI17553
asS'inputPath8412'
p879
(lp880
I1
a(lp881
S'job12588'
p882
aa(lp883
I40181
aaI2791174686
aI2893686915
aI0
aI-21226
asS'inputPath10748'
p884
(lp885
I1
a(lp886
S'job16079'
p887
aa(lp888
I53221
aaI24824511889
aI126910364289
aI0
aI13040
asS'inputPath10747'
p889
(lp890
I1
a(lp891
S'job16681'
p892
aa(lp893
I57144
aaI22798768713
aI114316452437
aI0
aI3923
asS'inputPath2142'
p894
(lp895
I1
a(lp896
S'job2861'
p897
aa(lp898
I7330
aaI305767562498
aI246185441741
aI0
aI-49814
asS'inputPath15369'
p899
(lp900
I1
a(lp901
S'job22737'
p902
aa(lp903
I74826
aaI254794609712
aI465585844292
aI0
aI67496
asS'inputPath15501'
p904
(lp905
I1
a(lp906
S'job22945'
p907
aa(lp908
I75474
aaI1115217873
aI3254471244
aI0
aI648
asS'inputPath10521'
p909
(lp910
I1
a(lp911
S'job15755'
p912
aa(lp913
I51296
aaI37101853492
aI14898028145
aI0
aI-24178
asS'inputPath10740'
p914
(lp915
I1
a(lp916
S'job16067'
p917
aa(lp918
I53089
aaI7021622827
aI5896349247
aI0
aI1793
asS'inputPath205'
p919
(lp920
I1
a(lp921
S'job312'
p922
aa(lp923
I1619
aaI1853748766
aI7426824810
aI0
aI-51470
asS'inputPath11617'
p924
(lp925
I1
a(lp926
S'job17409'
p927
aa(lp928
I58716
aaI14572745799
aI9045159127
aI0
aI57097
asS'inputPath200'
p929
(lp930
I1
a(lp931
S'job305'
p932
aa(lp933
I1603
aaI70074185720
aI39060479191
aI0
aI-57113
asS'inputPath13909'
p934
(lp935
I1
a(lp936
S'job25016'
p937
aa(lp938
I84574
aaI5759605769
aI5513519910
aI0
aI82971
asS'inputPath5907'
p939
(lp940
I1
a(lp941
S'job8743'
p942
aa(lp943
I26667
aaI109395957063
aI54078962224
aI0
aI-57907
asS'inputPath5904'
p944
(lp945
I1
a(lp946
S'job8740'
p947
aa(lp948
I26652
aaI148856942811
aI225921600267
aI0
aI-15
asS'inputPath160'
p949
(lp950
I1
a(lp951
S'job249'
p952
aa(lp953
I1422
aaI32822367798
aI35725773567
aI0
aI-25230
asS'inputPath14229'
p954
(lp955
I1
a(lp956
S'job20956'
p957
aa(lp958
I68315
aaI2668915352
aI2390138382
aI0
aI66893
asS'inputPath6459'
p959
(lp960
I1
a(lp961
S'job9665'
p962
aa(lp963
I29921
aaI7037775042
aI4856693898
aI0
aI-38394
asS'inputPath16860'
p964
(lp965
I1
a(lp966
S'job24990'
p967
aa(lp968
I84427
aaI114860229450
aI62755549386
aI0
aI54506
asS'inputPath3365'
p969
(lp970
I1
a(lp971
S'job4791'
p972
aa(lp973
I14800
aaI4257081666
aI5795917795
aI0
aI-69627
asS'inputPath11197'
p974
(lp975
I1
a(lp976
S'job16777'
p977
aa(lp978
I57565
aaI5074918317
aI6490827451
aI0
aI42765
asS'inputPath7065'
p979
(lp980
I1
a(lp981
S'job10602'
p982
aa(lp983
I32667
aaI1840214205
aI7427345642
aI0
aI-24898
asS'inputPath2812'
p984
(lp985
I1
a(lp986
S'job3876'
p987
aa(lp988
I12209
aaI5825031336
aI4982757250
aI0
aI-20458
asS'inputPath13247'
p989
(lp990
I1
a(lp991
S'job19670'
p992
aa(lp993
I64509
aaI211514553262
aI109392912781
aI0
aI52300
asS'inputPath8681'
p994
(lp995
I1
a(lp996
S'job12973'
p997
aa(lp998
I41235
aaI2678030634
aI2944120079
aI0
aI-23274
asS'inputPath9072'
p999
(lp1000
I1
a(lp1001
S'job13500'
p1002
aa(lp1003
I43269
aaI2646554359545
aI11659126409579
aI0
aI2034
asS'inputPath16712'
p1004
(lp1005
I1
a(lp1006
S'job24770'
p1007
aa(lp1008
I83289
aaI1290493496400
aI955801592654
aI0
aI40020
asS'inputPath9070'
p1009
(lp1010
I1
a(lp1011
S'job14347'
p1012
aa(lp1013
I46304
aaI1165544253
aI1175137588
aI0
aI-36985
asS'inputPath7385'
p1014
(lp1015
I1
a(lp1016
S'job11072'
p1017
aa(lp1018
I34011
aaI64653305843
aI40436653464
aI0
aI-12293
asS'inputPath16680'
p1019
(lp1020
I1
a(lp1021
S'job24722'
p1022
aa(lp1023
I82978
aaI1913330583
aI2355528237
aI0
aI48967
asS'inputPath8859'
p1024
(lp1025
I1
a(lp1026
S'job13218'
p1027
aa(lp1028
I42269
aaI2462498218
aI1809138557
aI0
aI-40709
asS'inputPath6281'
p1029
(lp1030
I1
a(lp1031
S'job9377'
p1032
aa(lp1033
I28938
aaI11133848600
aI29203346137
aI0
aI-13331
asS'inputPath6283'
p1034
(lp1035
I1
a(lp1036
S'job9379'
p1037
aa(lp1038
I28939
aaI10204202975
aI26081407014
aI0
aI1
asS'inputPath9175'
p1039
(lp1040
I1
a(lp1041
S'job13638'
p1042
aa(lp1043
I43872
aaI1364218118
aI1756676328
aI0
aI14933
asS'inputPath2630'
p1044
(lp1045
I1
a(lp1046
S'job3577'
p1047
aa(lp1048
I11225
aaI14637192986
aI12646122446
aI0
aI-32647
asS'inputPath2315'
p1049
(lp1050
I1
a(lp1051
S'job3102'
p1052
aa(lp1053
I8737
aaI293134353754
aI237604828223
aI0
aI-2488
asS'inputPath8246'
p1054
(lp1055
I1
a(lp1056
S'job12340'
p1057
aa(lp1058
I39256
aaI1898734948
aI2996443691
aI0
aI30519
asS'inputPath4455'
p1059
(lp1060
I1
a(lp1061
S'job6419'
p1062
aa(lp1063
I20200
aaI2107128691
aI1330106530
aI0
aI-19056
asS'inputPath6167'
p1064
(lp1065
I1
a(lp1066
S'job9217'
p1067
aa(lp1068
I28250
aaI1827550734
aI2013902457
aI0
aI8050
asS'inputPath3381'
p1069
(lp1070
I1
a(lp1071
S'job4809'
p1072
aa(lp1073
I14848
aaI1721387563
aI1817418335
aI0
aI-13402
asS'inputPath5843'
p1074
(lp1075
I1
a(lp1076
S'job8615'
p1077
aa(lp1078
I26306
aaI117368680620
aI218813514861
aI0
aI11458
asS'inputPath4649'
p1079
(lp1080
I1
a(lp1081
S'job6714'
p1082
aa(lp1083
I21231
aaI2675963765
aI4972380468
aI0
aI-5075
asS'inputPath12491'
p1084
(lp1085
I1
a(lp1086
S'job19760'
p1087
aa(lp1088
I64797
aaI1731531054
aI1837675317
aI0
aI43566
asS'inputPath4640'
p1089
(lp1090
I1
a(lp1091
S'job6701'
p1092
aa(lp1093
I21188
aaI1956786429
aI1242251879
aI0
aI-43609
asS'inputPath8568'
p1094
(lp1095
I8
a(lp1096
S'job12807'
p1097
aS'job12808'
p1098
aS'job12811'
p1099
aS'job12812'
p1100
aS'job12813'
p1101
aS'job12814'
p1102
aS'job12815'
p1103
aS'job13091'
p1104
aa(lp1105
I40758
aI40759
aI40760
aI40760
aI40761
aI40761
aI40761
aI41550
aaI133559766437
aI122416591023
aI792
aI19570
asS'inputPath4646'
p1106
(lp1107
I1
a(lp1108
S'job6709'
p1109
aa(lp1110
I21211
aaI3873427154
aI2988052458
aI0
aI-20339
asS'inputPath4647'
p1111
(lp1112
I1
a(lp1113
S'job6712'
p1114
aa(lp1115
I21219
aaI9237562086
aI12811161421
aI0
aI8
asS'inputPath4644'
p1116
(lp1117
I1
a(lp1118
S'job6707'
p1119
aa(lp1120
I21191
aaI487131486162
aI2438009729875
aI0
aI-28
asS'inputPath11720'
p1121
(lp1122
I1
a(lp1123
S'job17552'
p1124
aa(lp1125
I59160
aaI28376096716
aI10332788520
aI0
aI37969
asS'inputPath11689'
p1126
(lp1127
I1
a(lp1128
S'job17514'
p1129
aa(lp1130
I58994
aaI1465011378
aI2022890875
aI0
aI-166
asS'inputPath4165'
p1131
(lp1132
I1
a(lp1133
S'job5990'
p1134
aa(lp1135
I18873
aaI1992105374
aI2815099534
aI0
aI-40121
asS'inputPath16846'
p1136
(lp1137
I1
a(lp1138
S'job24970'
p1139
aa(lp1140
I84320
aaI3643312454
aI4769108401
aI0
aI65447
asS'inputPath4084'
p1141
(lp1142
I1
a(lp1143
S'job5866'
p1144
aa(lp1145
I18481
aaI199873964548
aI199182703379
aI0
aI-65839
asS'inputPath9628'
p1146
(lp1147
I1
a(lp1148
S'job14279'
p1149
aa(lp1150
I46122
aaI2845900726
aI3428976407
aI0
aI27641
asS'inputPath15845'
p1151
(lp1152
I1
a(lp1153
S'job23400'
p1154
aa(lp1155
I76898
aaI7977074052
aI7229201237
aI0
aI30776
asS'inputPath11682'
p1156
(lp1157
I1
a(lp1158
S'job17505'
p1159
aa(lp1160
I58971
aaI2410662309
aI5610312840
aI0
aI-17927
asS'inputPath1515'
p1161
(lp1162
I1
a(lp1163
S'job2204'
p1164
aa(lp1165
I6021
aaI803139477649
aI469204969919
aI0
aI-52950
asS'inputPath4463'
p1166
(lp1167
I1
a(lp1168
S'job6433'
p1169
aa(lp1170
I20245
aaI28710893976
aI67614502831
aI0
aI14224
asS'inputPath10968'
p1171
(lp1172
I1
a(lp1173
S'job16418'
p1174
aa(lp1175
I55529
aaI11250071562
aI4332592481
aI0
aI35284
asS'inputPath4466'
p1176
(lp1177
I1
a(lp1178
S'job6436'
p1179
aa(lp1180
I20255
aaI1907721974
aI1608722885
aI0
aI-35274
asS'inputPath4467'
p1181
(lp1182
I1
a(lp1183
S'job6438'
p1184
aa(lp1185
I20259
aaI2336176264
aI1898575308
aI0
aI4
asS'inputPath7297'
p1186
(lp1187
I1
a(lp1188
S'job10943'
p1189
aa(lp1190
I33617
aaI13767061056
aI11736253924
aI0
aI13358
asS'inputPath4743'
p1191
(lp1192
I1
a(lp1193
S'job6853'
p1194
aa(lp1195
I21856
aaI1878971569
aI159092228427
aI0
aI-11761
asS'inputPath16682'
p1196
(lp1197
I1
a(lp1198
S'job24724'
p1199
aa(lp1200
I82982
aaI23256432345
aI15753225816
aI0
aI61126
asS'inputPath12189'
p1201
(lp1202
I1
a(lp1203
S'job18230'
p1204
aa(lp1205
I61292
aaI1856428813
aI1465073845
aI0
aI-21690
asS'inputPath5699'
p1206
(lp1207
I1
a(lp1208
S'job8348'
p1209
aa(lp1210
I25602
aaI2430938414
aI2140756724
aI0
aI-35690
asS'inputPath1519'
p1211
(lp1212
I1
a(lp1213
S'job2001'
p1214
aa(lp1215
I5575
aaI58642877291
aI30963845086
aI0
aI-20027
asS'inputPath14715'
p1216
(lp1217
I1
a(lp1218
S'job21727'
p1219
aa(lp1220
I70521
aaI477026782240
aI496079450597
aI0
aI64946
asS'inputPath8302'
p1221
(lp1222
I1
a(lp1223
S'job12434'
p1224
aa(lp1225
I39931
aaI6408023112
aI15177368195
aI0
aI-30590
asS'inputPath1290'
p1226
(lp1227
I1
a(lp1228
S'job1686'
p1229
aa(lp1230
I4907
aaI4412330323
aI5139059258
aI0
aI-35024
asS'inputPath16870'
p1231
(lp1232
I1
a(lp1233
S'job25003'
p1234
aa(lp1235
I84501
aaI114861944136
aI62757987522
aI0
aI79594
asS'inputPath15300'
p1236
(lp1237
I1
a(lp1238
S'job22643'
p1239
aa(lp1240
I74386
aaI258910366408
aI453972055299
aI0
aI-10115
asS'inputPath7369'
p1241
(lp1242
I1
a(lp1243
S'job11041'
p1244
aa(lp1245
I33901
aaI111348145371
aI62899409173
aI0
aI-40485
asS'inputPath16878'
p1246
(lp1247
I1
a(lp1248
S'job25021'
p1249
aa(lp1250
I84621
aaI987982853306
aI740130086497
aI0
aI50720
asS'inputPath12349'
p1251
(lp1252
I1
a(lp1253
S'job18445'
p1254
aa(lp1255
I61719
aaI4953959387
aI3934125379
aI0
aI-22902
asS'inputPath13620'
p1256
(lp1257
I2
a(lp1258
S'job20190'
p1259
aS'job20195'
p1260
aa(lp1261
I65801
aI65802
aaI125359435632
aI359727076623
aI1
aI4082
asS'inputPath6767'
p1262
(lp1263
I1
a(lp1264
S'job10185'
p1265
aa(lp1266
I31471
aaI8008171246
aI8154968843
aI0
aI-34331
asS'inputPath6764'
p1267
(lp1268
I1
a(lp1269
S'job10182'
p1270
aa(lp1271
I31465
aaI827251073219
aI2844453888304
aI0
aI-6
asS'inputPath13831'
p1272
(lp1273
I1
a(lp1274
S'job20468'
p1275
aa(lp1276
I66781
aaI465518287750
aI1245817010318
aI0
aI35316
asS'inputPath6762'
p1277
(lp1278
I1
a(lp1279
S'job10180'
p1280
aa(lp1281
I31458
aaI178137751844
aI565405899385
aI0
aI-35323
asS'inputPath12949'
p1282
(lp1283
I1
a(lp1284
S'job19724'
p1285
aa(lp1286
I64639
aaI5958074002
aI3307715005
aI0
aI33181
asS'inputPath2921'
p1287
(lp1288
I1
a(lp1289
S'job4062'
p1290
aa(lp1291
I12687
aaI36678555249
aI115265057000
aI0
aI-51952
asS'inputPath13973'
p1292
(lp1293
I1
a(lp1294
S'job20640'
p1295
aa(lp1296
I67312
aaI438035466139
aI1648666614881
aI0
aI54625
asS'inputPath15618'
p1297
(lp1298
I1
a(lp1299
S'job23091'
p1300
aa(lp1301
I75854
aaI7979548962
aI17207117529
aI0
aI8542
asS'inputPath6356'
p1302
(lp1303
I1
a(lp1304
S'job9496'
p1305
aa(lp1306
I29362
aaI2847572195
aI1916211491
aI0
aI-46492
asS'inputPath14017'
p1307
(lp1308
I1
a(lp1309
S'job20694'
p1310
aa(lp1311
I67555
aaI27253054816
aI60947494882
aI0
aI38193
asS'inputPath13800'
p1312
(lp1313
I1
a(lp1314
S'job20433'
p1315
aa(lp1316
I66696
aaI36924406952
aI216751924617
aI0
aI-859
asS'inputPath13803'
p1317
(lp1318
I1
a(lp1319
S'job20436'
p1320
aa(lp1321
I66701
aaI1854534569
aI5751918027
aI0
aI5
asS'inputPath6566'
p1322
(lp1323
I1
a(lp1324
S'job9860'
p1325
aa(lp1326
I30663
aaI9328682917
aI11441282996
aI0
aI-36038
asS'inputPath15515'
p1327
(lp1328
I1
a(lp1329
S'job22962'
p1330
aa(lp1331
I75557
aaI1120512073
aI1000131303
aI0
aI44894
asS'inputPath13623'
p1332
(lp1333
I1
a(lp1334
S'job20198'
p1335
aa(lp1336
I65806
aaI2776143012
aI6032906604
aI0
aI-9751
asS'inputPath14402'
p1337
(lp1338
I1
a(lp1339
S'job21235'
p1340
aa(lp1341
I69224
aaI178435861391
aI604770346736
aI0
aI3418
asS'inputPath12973'
p1342
(lp1343
I1
a(lp1344
S'job19313'
p1345
aa(lp1346
I63728
aaI2116424692
aI2438226363
aI0
aI-5496
asS'inputPath839'
p1347
(lp1348
I1
a(lp1349
S'job1062'
p1350
aa(lp1351
I3282
aaI1193359846529
aI435764560906
aI0
aI-60446
asS'inputPath5188'
p1352
(lp1353
I1
a(lp1354
S'job7533'
p1355
aa(lp1356
I23608
aaI260980628568
aI383915401919
aI0
aI20326
asS'inputPath15668'
p1357
(lp1358
I1
a(lp1359
S'job23152'
p1360
aa(lp1361
I76013
aaI1299064632
aI2666626967
aI0
aI52405
asS'inputPath5029'
p1362
(lp1363
I1
a(lp1364
S'job7303'
p1365
aa(lp1366
I23180
aaI42412569720
aI58110348793
aI0
aI-52833
asS'inputPath2039'
p1367
(lp1368
I1
a(lp1369
S'job2713'
p1370
aa(lp1371
I6892
aaI22053689039
aI45920956577
aI0
aI-16288
asS'inputPath4515'
p1372
(lp1373
I1
a(lp1374
S'job6520'
p1375
aa(lp1376
I20565
aaI7835967992
aI20452038951
aI0
aI13673
asS'inputPath16905'
p1377
(lp1378
I1
a(lp1379
S'job25069'
p1380
aa(lp1381
I84996
aaI114874979445
aI62786383877
aI0
aI64431
asS'inputPath11632'
p1382
(lp1383
I1
a(lp1384
S'job17438'
p1385
aa(lp1386
I58782
aaI9590450682236
aI2446963406093
aI0
aI-26214
asS'inputPath7969'
p1387
(lp1388
I1
a(lp1389
S'job11875'
p1390
aa(lp1391
I35918
aaI2934122066
aI3125639770
aI0
aI-22864
asS'inputPath11029'
p1392
(lp1393
I1
a(lp1394
S'job16516'
p1395
aa(lp1396
I56165
aaI3696759726
aI4713206317
aI0
aI20247
asS'inputPath14026'
p1397
(lp1398
I1
a(lp1399
S'job20703'
p1400
aa(lp1401
I67570
aaI11386772773
aI5733229348
aI0
aI11405
asS'inputPath10449'
p1402
(lp1403
I1
a(lp1404
S'job15660'
p1405
aa(lp1406
I50662
aaI20563921345
aI99152750664
aI0
aI-16908
asS'inputPath9593'
p1407
(lp1408
I1
a(lp1409
S'job14214'
p1410
aa(lp1411
I45959
aaI53716815632
aI85515492075
aI0
aI-4703
asS'inputPath11022'
p1412
(lp1413
I1
a(lp1414
S'job16501'
p1415
aa(lp1416
I56046
aaI50698907636
aI135434591311
aI0
aI10087
asS'inputPath8632'
p1417
(lp1418
I1
a(lp1419
S'job12903'
p1420
aa(lp1421
I41020
aaI228194976267
aI275014211934
aI0
aI-15026
asS'inputPath11027'
p1422
(lp1423
I1
a(lp1424
S'job16512'
p1425
aa(lp1426
I56154
aaI51198810345
aI191217730889
aI0
aI15134
asS'inputPath10009'
p1427
(lp1428
I1
a(lp1429
S'job14915'
p1430
aa(lp1431
I48008
aaI4365576135
aI6753111007
aI0
aI-8146
asS'inputPath10566'
p1432
(lp1433
I1
a(lp1434
S'job15816'
p1435
aa(lp1436
I51624
aaI2177561652
aI6710584427
aI0
aI3616
asS'inputPath6269'
p1437
(lp1438
I1
a(lp1439
S'job9364'
p1440
aa(lp1441
I28867
aaI1730163432
aI5562100176
aI0
aI-22757
asS'inputPath11636'
p1442
(lp1443
I1
a(lp1444
S'job17442'
p1445
aa(lp1446
I58792
aaI23755262853
aI61849810141
aI0
aI29925
asS'inputPath15017'
p1447
(lp1448
I1
a(lp1449
S'job22211'
p1450
aa(lp1451
I72006
aaI1662260323
aI4958276343
aI0
aI13214
asS'inputPath4943'
p1452
(lp1453
I1
a(lp1454
S'job7159'
p1455
aa(lp1456
I22923
aaI1295781585
aI739451930
aI0
aI-49083
asS'inputPath14698'
p1457
(lp1458
I1
a(lp1459
S'job21706'
p1460
aa(lp1461
I70510
aaI1278536707641
aI9683174221010
aI0
aI47587
asS'inputPath12567'
p1462
(lp1463
I1
a(lp1464
S'job18769'
p1465
aa(lp1466
I62537
aaI5888224849
aI5125269755
aI0
aI-7973
asS'inputPath10250'
p1467
(lp1468
I1
a(lp1469
S'job15363'
p1470
aa(lp1471
I49559
aaI2184285562
aI2856341601
aI0
aI-12978
asS'inputPath10252'
p1472
(lp1473
I1
a(lp1474
S'job15367'
p1475
aa(lp1476
I49570
aaI26992987225
aI19568690459
aI0
aI11
asS'inputPath7394'
p1477
(lp1478
I1
a(lp1479
S'job11083'
p1480
aa(lp1481
I34038
aaI52312783251
aI66613211541
aI0
aI-15532
asS'inputPath2721'
p1482
(lp1483
I1
a(lp1484
S'job3706'
p1485
aa(lp1486
I11742
aaI1098905474
aI604708489
aI0
aI-22296
asS'inputPath2720'
p1487
(lp1488
I7
a(lp1489
S'job3703'
p1490
aS'job3710'
p1491
aS'job3715'
p1492
aS'job4151'
p1493
aS'job4166'
p1494
aS'job4199'
p1495
aS'job4328'
p1496
aa(lp1497
I11736
aI11746
aI11754
aI12911
aI12936
aI13035
aI13443
aaI1656290518
aI1938098712
aI1707
aI-6
asS'inputPath7399'
p1498
(lp1499
I1
a(lp1500
S'job11088'
p1501
aa(lp1502
I34050
aaI2281352725
aI3578031609
aI0
aI20607
asS'inputPath9947'
p1503
(lp1504
I1
a(lp1505
S'job14792'
p1506
aa(lp1507
I47568
aaI11162018967
aI25313015410
aI0
aI13518
asS'inputPath8068'
p1508
(lp1509
I1
a(lp1510
S'job12033'
p1511
aa(lp1512
I36900
aaI1768846470
aI2983097059
aI0
aI-10668
asS'inputPath493'
p1513
(lp1514
I1
a(lp1515
S'job648'
p1516
aa(lp1517
I2331
aaI35985013466
aI164454116265
aI0
aI-34569
asS'inputPath13933'
p1518
(lp1519
I1
a(lp1520
S'job20589'
p1521
aa(lp1522
I67180
aaI1737876662
aI2296905462
aI0
aI64849
asS'inputPath5780'
p1523
(lp1524
I1
a(lp1525
S'job8505'
p1526
aa(lp1527
I25977
aaI2830990345
aI11723662456
aI0
aI-41203
asS'inputPath3985'
p1528
(lp1529
I2
a(lp1530
S'job5760'
p1531
aS'job5764'
p1532
aa(lp1533
I18164
aI18173
aaI73551442580
aI430948035366
aI9
aI-7813
asS'inputPath3986'
p1534
(lp1535
I1
a(lp1536
S'job5719'
p1537
aa(lp1538
I18062
aaI73551717096
aI176729305953
aI0
aI-111
asS'inputPath3987'
p1539
(lp1540
I1
a(lp1541
S'job5720'
p1542
aa(lp1543
I18070
aaI84205554817
aI569730127135
aI0
aI8
asS'inputPath16945'
p1544
(lp1545
I1
a(lp1546
S'job25136'
p1547
aa(lp1548
I85406
aaI1287789378171
aI954406895403
aI0
aI67336
asS'inputPath14430'
p1549
(lp1550
I1
a(lp1551
S'job21288'
p1552
aa(lp1553
I69330
aaI7299875078918
aI1773098141659
aI0
aI-16076
asS'inputPath14002'
p1554
(lp1555
I1
a(lp1556
S'job20671'
p1557
aa(lp1558
I67461
aaI1331625492
aI1680879160
aI0
aI-1869
asS'inputPath2453'
p1559
(lp1560
I1
a(lp1561
S'job3307'
p1562
aa(lp1563
I9952
aaI1356926136345
aI992851531602
aI0
aI-57509
asS'inputPath12065'
p1564
(lp1565
I1
a(lp1566
S'job18061'
p1567
aa(lp1568
I60753
aaI28795291393
aI98568899480
aI0
aI50801
asS'inputPath9383'
p1569
(lp1570
I1
a(lp1571
S'job13911'
p1572
aa(lp1573
I44976
aaI3337390493
aI2422318834
aI0
aI-15777
asS'inputPath16728'
p1574
(lp1575
I1
a(lp1576
S'job24797'
p1577
aa(lp1578
I83467
aaI6329173766
aI11598464801
aI0
aI38491
asS'inputPath11768'
p1579
(lp1580
I1
a(lp1581
S'job17608'
p1582
aa(lp1583
I59346
aaI28046529747
aI89225407785
aI0
aI-24121
asS'inputPath10709'
p1584
(lp1585
I1
a(lp1586
S'job16023'
p1587
aa(lp1588
I52803
aaI6489903615
aI5639243413
aI0
aI-6543
asS'inputPath120'
p1589
(lp1590
I1
a(lp1591
S'job181'
p1592
aa(lp1593
I930
aaI864139594519
aI1071567547094
aI0
aI-51873
asS'inputPath13249'
p1594
(lp1595
I1
a(lp1596
S'job19660'
p1597
aa(lp1598
I64494
aaI94270347969
aI93544838360
aI0
aI63564
asS'inputPath3859'
p1599
(lp1600
I1
a(lp1601
S'job5514'
p1602
aa(lp1603
I17369
aaI8639792624
aI11563677483
aI0
aI-47125
asS'inputPath11098'
p1604
(lp1605
I1
a(lp1606
S'job16625'
p1607
aa(lp1608
I56845
aaI71102707126
aI27013017128
aI0
aI39476
asS'inputPath8998'
p1609
(lp1610
I1
a(lp1611
S'job13378'
p1612
aa(lp1613
I42560
aaI14240073548
aI30085816363
aI0
aI-14285
asS'inputPath12004'
p1614
(lp1615
I1
a(lp1616
S'job17965'
p1617
aa(lp1618
I60327
aaI1819445980
aI6267540471
aI0
aI17767
asS'inputPath5945'
p1619
(lp1620
I1
a(lp1621
S'job8837'
p1622
aa(lp1623
I26951
aaI27494924644
aI20393622284
aI0
aI-33376
asS'inputPath16953'
p1624
(lp1625
I1
a(lp1626
S'job25148'
p1627
aa(lp1628
I85442
aaI448427610471
aI337534488909
aI0
aI58491
asS'inputPath12468'
p1629
(lp1630
I1
a(lp1631
S'job18619'
p1632
aa(lp1633
I62129
aaI2790256512
aI3001604049
aI0
aI-23313
asS'inputPath11096'
p1634
(lp1635
I1
a(lp1636
S'job16623'
p1637
aa(lp1638
I56806
aaI1560152692
aI780837017
aI0
aI-5323
asS'inputPath14308'
p1639
(lp1640
I1
a(lp1641
S'job21089'
p1642
aa(lp1643
I68834
aaI13853462280
aI8707662951
aI0
aI12028
asS'inputPath12168'
p1644
(lp1645
I1
a(lp1646
S'job18206'
p1647
aa(lp1648
I61240
aaI674769506472
aI1093233650770
aI0
aI-7594
asS'inputPath9500'
p1649
(lp1650
I1
a(lp1651
S'job14079'
p1652
aa(lp1653
I45454
aaI40626405662
aI136989358452
aI0
aI-15786
asS'inputPath7144'
p1654
(lp1655
I2
a(lp1656
S'job10719'
p1657
aS'job11749'
p1658
aa(lp1659
I32850
aI35653
aaI10790907089
aI7132432138
aI2803
aI-12604
asS'inputPath3912'
p1660
(lp1661
I1
a(lp1662
S'job5609'
p1663
aa(lp1664
I17741
aaI1648645495
aI1722341523
aI0
aI-17912
asS'inputPath8261'
p1665
(lp1666
I1
a(lp1667
S'job12368'
p1668
aa(lp1669
I39564
aaI50251249394
aI123538301555
aI0
aI21823
asS'inputPath5286'
p1670
(lp1671
I1
a(lp1672
S'job7707'
p1673
aa(lp1674
I23849
aaI260954051086
aI383841671451
aI0
aI-15715
asS'inputPath2855'
p1675
(lp1676
I1
a(lp1677
S'job3947'
p1678
aa(lp1679
I12373
aaI20974049186
aI13939233583
aI0
aI-11476
asS'inputPath6418'
p1680
(lp1681
I1
a(lp1682
S'job9590'
p1683
aa(lp1684
I29698
aaI58591749725
aI109788345726
aI0
aI17325
asS'inputPath5343'
p1685
(lp1686
I1
a(lp1687
S'job7782'
p1688
aa(lp1689
I24066
aaI651672403819
aI1969225014306
aI0
aI-5632
asS'inputPath16891'
p1690
(lp1691
I1
a(lp1692
S'job25040'
p1693
aa(lp1694
I84807
aaI3892869188
aI5710088845
aI0
aI60741
asS'inputPath6942'
p1695
(lp1696
I1
a(lp1697
S'job10472'
p1698
aa(lp1699
I32461
aaI20741927755
aI12817219414
aI0
aI-52346
asS'inputPath16892'
p1700
(lp1701
I1
a(lp1702
S'job25042'
p1703
aa(lp1704
I84812
aaI39802586944
aI122158845948
aI0
aI52351
asS'inputPath16029'
p1705
(lp1706
I1
a(lp1707
S'job23683'
p1708
aa(lp1709
I77995
aaI4025696936
aI2767508457
aI0
aI-6817
asS'inputPath15870'
p1710
(lp1711
I1
a(lp1712
S'job23441'
p1713
aa(lp1714
I77063
aaI2631790144
aI4352054817
aI0
aI-932
asS'inputPath14043'
p1715
(lp1716
I1
a(lp1717
S'job20723'
p1718
aa(lp1719
I67633
aaI160056743499
aI88362987668
aI0
aI-9430
asS'inputPath13379'
p1720
(lp1721
I1
a(lp1722
S'job19859'
p1723
aa(lp1724
I64960
aaI18236315380
aI7431386758
aI0
aI-2673
asS'inputPath13148'
p1725
(lp1726
I1
a(lp1727
S'job19535'
p1728
aa(lp1729
I64243
aaI27572827232
aI43670379380
aI0
aI-717
asS'inputPath13062'
p1730
(lp1731
I1
a(lp1732
S'job19430'
p1733
aa(lp1734
I63983
aaI5872804082
aI5183296097
aI0
aI-260
asS'inputPath2356'
p1735
(lp1736
I1
a(lp1737
S'job3181'
p1738
aa(lp1739
I9240
aaI11723262536
aI7458334728
aI0
aI-54743
asS'inputPath10679'
p1740
(lp1741
I1
a(lp1742
S'job15980'
p1743
aa(lp1744
I52439
aaI847076030883
aI5239565004187
aI0
aI43199
asS'inputPath15003'
p1745
(lp1746
I1
a(lp1747
S'job22184'
p1748
aa(lp1749
I71954
aaI116568372761
aI62682120092
aI0
aI19515
asS'inputPath2211'
p1750
(lp1751
I1
a(lp1752
S'job2964'
p1753
aa(lp1754
I7999
aaI303346796503
aI244234337911
aI0
aI-63955
asS'inputPath10766'
p1755
(lp1756
I1
a(lp1757
S'job16104'
p1758
aa(lp1759
I53472
aaI3667724079
aI5054942859
aI0
aI45473
asS'inputPath15289'
p1760
(lp1761
I1
a(lp1762
S'job22624'
p1763
aa(lp1764
I74278
aaI151119791471
aI583947071660
aI0
aI20806
asS'inputPath15288'
p1765
(lp1766
I1
a(lp1767
S'job22623'
p1768
aa(lp1769
I74277
aaI6544971284
aI5813824263
aI0
aI-1
asS'inputPath15208'
p1770
(lp1771
I1
a(lp1772
S'job22498'
p1773
aa(lp1774
I73437
aaI165806057384
aI111172433690
aI0
aI-840
asS'inputPath16900'
p1775
(lp1776
I1
a(lp1777
S'job25056'
p1778
aa(lp1779
I84871
aaI333134507818
aI225595005913
aI0
aI11434
asS'inputPath13614'
p1780
(lp1781
I1
a(lp1782
S'job20270'
p1783
aa(lp1784
I66178
aaI1266303639
aI2198902719
aI0
aI-18693
asS'inputPath13615'
p1785
(lp1786
I1
a(lp1787
S'job20183'
p1788
aa(lp1789
I65778
aaI1266303639
aI2296330673
aI0
aI-400
asS'inputPath12719'
p1790
(lp1791
I1
a(lp1792
S'job18991'
p1793
aa(lp1794
I63218
aaI870778347149
aI1376346872161
aI0
aI-2560
asS'inputPath4045'
p1795
(lp1796
I1
a(lp1797
S'job5799'
p1798
aa(lp1799
I18240
aaI1166999077
aI1222159413
aI0
aI-44978
asS'inputPath13591'
p1800
(lp1801
I1
a(lp1802
S'job20151'
p1803
aa(lp1804
I65580
aaI2479888026
aI11880687481
aI0
aI47340
asS'inputPath12016'
p1805
(lp1806
I2
a(lp1807
S'job18022'
p1808
aS'job18097'
p1809
aa(lp1810
I60552
aI60841
aaI948605578363
aI1564109353338
aI289
aI-5028
asS'inputPath13219'
p1811
(lp1812
I1
a(lp1813
S'job19620'
p1814
aa(lp1815
I64392
aaI2257093563
aI3486906607
aI0
aI3551
asS'inputPath4128'
p1816
(lp1817
I1
a(lp1818
S'job5941'
p1819
aa(lp1820
I18664
aaI65968850095
aI265230963301
aI0
aI-45728
asS'inputPath11711'
p1821
(lp1822
I1
a(lp1823
S'job17541'
p1824
aa(lp1825
I59137
aaI1383465434
aI3649818275
aI0
aI40473
asS'inputPath16091'
p1826
(lp1827
I1
a(lp1828
S'job23776'
p1829
aa(lp1830
I78229
aaI8340758293
aI7677881952
aI0
aI19092
asS'inputPath16628'
p1831
(lp1832
I1
a(lp1833
S'job24645'
p1834
aa(lp1835
I82418
aaI816151674275
aI1060706160623
aI0
aI4189
asS'inputPath11591'
p1836
(lp1837
I1
a(lp1838
S'job17367'
p1839
aa(lp1840
I58558
aaI6366217105572
aI1479723832332
aI0
aI-23860
asS'inputPath16155'
p1841
(lp1842
I1
a(lp1843
S'job23870'
p1844
aa(lp1845
I78484
aaI1152274853
aI2994172325
aI0
aI19926
asS'inputPath3352'
p1846
(lp1847
I1
a(lp1848
S'job4766'
p1849
aa(lp1850
I14713
aaI26906100326
aI171149297230
aI0
aI-63771
asS'inputPath10424'
p1851
(lp1852
I1
a(lp1853
S'job15628'
p1854
aa(lp1855
I50469
aaI14468988336
aI8372779861
aI0
aI35756
asS'inputPath3357'
p1856
(lp1857
I1
a(lp1858
S'job4779'
p1859
aa(lp1860
I14749
aaI15967123889
aI11328937105
aI0
aI-35720
asS'inputPath3078'
p1861
(lp1862
I1
a(lp1863
S'job4343'
p1864
aa(lp1865
I13470
aaI47178232339
aI58602912484
aI0
aI-1279
asS'inputPath8964'
p1866
(lp1867
I1
a(lp1868
S'job13332'
p1869
aa(lp1870
I42470
aaI75042913359
aI73545344888
aI0
aI29000
asS'inputPath14453'
p1871
(lp1872
I1
a(lp1873
S'job21330'
p1874
aa(lp1875
I69451
aaI815258417244
aI986224036086
aI0
aI26981
asS'inputPath14451'
p1876
(lp1877
I1
a(lp1878
S'job21328'
p1879
aa(lp1880
I69445
aaI7205055950
aI43563098720
aI0
aI-6
asS'inputPath15301'
p1881
(lp1882
I1
a(lp1883
S'job22644'
p1884
aa(lp1885
I74388
aaI256117544437
aI454519879994
aI0
aI4943
asS'inputPath8806'
p1886
(lp1887
I1
a(lp1888
S'job13145'
p1889
aa(lp1890
I41933
aaI874583149110
aI1062471046870
aI0
aI-32455
asS'inputPath11388'
p1891
(lp1892
I1
a(lp1893
S'job17088'
p1894
aa(lp1895
I58158
aaI421620836276
aI1304601211498
aI0
aI16225
asS'inputPath6867'
p1896
(lp1897
I1
a(lp1898
S'job10366'
p1899
aa(lp1900
I32141
aaI4375413427
aI15988956529
aI0
aI-26017
asS'inputPath7324'
p1901
(lp1902
I1
a(lp1903
S'job10984'
p1904
aa(lp1905
I33737
aaI3076671612
aI2306794701
aI0
aI1596
asS'inputPath12638'
p1906
(lp1907
I2
a(lp1908
S'job18881'
p1909
aS'job18883'
p1910
aa(lp1911
I62952
aI62954
aaI61040893139
aI159994620565
aI2
aI29215
asS'inputPath15518'
p1912
(lp1913
I1
a(lp1914
S'job22966'
p1915
aa(lp1916
I75574
aaI17783500304
aI12716853419
aI0
aI12620
asS'inputPath5544'
p1917
(lp1918
I1
a(lp1919
S'job8120'
p1920
aa(lp1921
I25180
aaI32848046386
aI182546423071
aI0
aI-50394
asS'inputPath11084'
p1922
(lp1923
I1
a(lp1924
S'job16599'
p1925
aa(lp1926
I56608
aaI11233615116
aI5942663993
aI0
aI31428
asS'inputPath59'
p1927
(lp1928
I1
a(lp1929
S'job73'
p1930
aa(lp1931
I334
aaI207017723872
aI296673338996
aI0
aI-56274
asS'inputPath58'
p1932
(lp1933
I1
a(lp1934
S'job72'
p1935
aa(lp1936
I329
aaI10819567082
aI7009967977
aI0
aI-5
asS'inputPath6135'
p1937
(lp1938
I1
a(lp1939
S'job9171'
p1940
aa(lp1941
I28045
aaI1601767917
aI4623618913
aI0
aI27716
asS'inputPath15353'
p1942
(lp1943
I1
a(lp1944
S'job22716'
p1945
aa(lp1946
I74749
aaI17809818959
aI12721789670
aI0
aI46704
asS'inputPath6133'
p1947
(lp1948
I1
a(lp1949
S'job9167'
p1950
aa(lp1951
I28017
aaI25894198016
aI47727521393
aI0
aI-46732
asS'inputPath6646'
p1952
(lp1953
I1
a(lp1954
S'job9997'
p1955
aa(lp1956
I31018
aaI10952772578
aI6146279815
aI0
aI3001
asS'inputPath4607'
p1957
(lp1958
I1
a(lp1959
S'job6652'
p1960
aa(lp1961
I21030
aaI2544222505
aI2017832445
aI0
aI-9988
asS'inputPath5723'
p1962
(lp1963
I1
a(lp1964
S'job8383'
p1965
aa(lp1966
I25687
aaI12348174433
aI41776795223
aI0
aI4657
asS'inputPath52'
p1967
(lp1968
I1
a(lp1969
S'job66'
p1970
aa(lp1971
I284
aaI80847393080
aI113738945812
aI0
aI-25403
asS'inputPath6525'
p1972
(lp1973
I1
a(lp1974
S'job9790'
p1975
aa(lp1976
I30344
aaI1479177992
aI4058420470
aI0
aI30060
asS'inputPath13240'
p1977
(lp1978
I1
a(lp1979
S'job19646'
p1980
aa(lp1981
I64459
aaI11960671082
aI10385891968
aI0
aI34115
asS'inputPath13687'
p1982
(lp1983
I1
a(lp1984
S'job20279'
p1985
aa(lp1986
I66201
aaI1471057219
aI809513939
aI0
aI1742
asS'inputPath16519'
p1987
(lp1988
I1
a(lp1989
S'job24437'
p1990
aa(lp1991
I80697
aaI1156551100
aI1320263355
aI0
aI14496
asS'inputPath4631'
p1992
(lp1993
I1
a(lp1994
S'job6688'
p1995
aa(lp1996
I21144
aaI2078609570
aI1927250917
aI0
aI-59553
asS'inputPath10681'
p1997
(lp1998
I1
a(lp1999
S'job15982'
p2000
aa(lp2001
I52449
aaI2740657648
aI4806740315
aI0
aI31305
asS'inputPath11779'
p2002
(lp2003
I1
a(lp2004
S'job17622'
p2005
aa(lp2006
I59392
aaI4638351166704
aI9790505471547
aI0
aI6943
asS'inputPath11778'
p2007
(lp2008
I1
a(lp2009
S'job17621'
p2010
aa(lp2011
I59392
aaI4634744454
aI25845646513
aI0
aI0
asS'inputPath4634'
p2012
(lp2013
I1
a(lp2014
S'job6691'
p2015
aa(lp2016
I21162
aaI1798325188
aI1158668139
aI0
aI-38230
asS'inputPath16522'
p2017
(lp2018
I1
a(lp2019
S'job24442'
p2020
aa(lp2021
I80778
aaI1603592325
aI2234530999
aI0
aI59616
asS'inputPath11479'
p2022
(lp2023
I1
a(lp2024
S'job17196'
p2025
aa(lp2026
I58318
aaI11600396853
aI45844673857
aI0
aI-22460
asS'inputPath15977'
p2027
(lp2028
I1
a(lp2029
S'job23609'
p2030
aa(lp2031
I77782
aaI1811135117
aI1184495472
aI0
aI19464
asS'inputPath15969'
p2032
(lp2033
I1
a(lp2034
S'job23595'
p2035
aa(lp2036
I77716
aaI14988922450
aI31908140261
aI0
aI-66
asS'inputPath15623'
p2037
(lp2038
I1
a(lp2039
S'job23099'
p2040
aa(lp2041
I75873
aaI7962873596
aI7189865362
aI0
aI-1843
asS'inputPath194'
p2042
(lp2043
I1
a(lp2044
S'job296'
p2045
aa(lp2046
I1550
aaI1428679566
aI3028130600
aI0
aI-74323
asS'inputPath4555'
p2047
(lp2048
I1
a(lp2049
S'job6576'
p2050
aa(lp2051
I20765
aaI2200401603
aI1815017039
aI0
aI19215
asS'inputPath4558'
p2052
(lp2053
I1
a(lp2054
S'job6580'
p2055
aa(lp2056
I20786
aaI114722442270
aI67456016183
aI0
aI21
asS'inputPath4559'
p2057
(lp2058
I1
a(lp2059
S'job6581'
p2060
aa(lp2061
I20787
aaI113217822347
aI63370815454
aI0
aI1
asS'inputPath10950'
p2062
(lp2063
I1
a(lp2064
S'job16384'
p2065
aa(lp2066
I55322
aaI23826994018
aI54360396933
aI0
aI34535
asS'inputPath10528'
p2067
(lp2068
I1
a(lp2069
S'job15764'
p2070
aa(lp2071
I51360
aaI16140105050
aI11400455595
aI0
aI-3962
asS'inputPath14573'
p2072
(lp2073
I1
a(lp2074
S'job21524'
p2075
aa(lp2076
I69931
aaI8610739495682
aI2218743016926
aI0
aI18571
asS'inputPath3008'
p2077
(lp2078
I1
a(lp2079
S'job4216'
p2080
aa(lp2081
I13057
aaI12289053769
aI32625122132
aI0
aI-56874
asS'inputPath16651'
p2082
(lp2083
I1
a(lp2084
S'job24681'
p2085
aa(lp2086
I82662
aaI114516053676
aI63750856935
aI0
aI69605
asS'inputPath7214'
p2087
(lp2088
I1
a(lp2089
S'job10846'
p2090
aa(lp2091
I33334
aaI14791189772
aI5337663189
aI0
aI-49328
asS'inputPath7215'
p2092
(lp2093
I1
a(lp2094
S'job10847'
p2095
aa(lp2096
I33341
aaI660873201363
aI2226975164685
aI0
aI7
asS'inputPath3007'
p2097
(lp2098
I1
a(lp2099
S'job4250'
p2100
aa(lp2101
I13182
aaI16530667317
aI32590117915
aI0
aI-20159
asS'inputPath3001'
p2102
(lp2103
I1
a(lp2104
S'job4205'
p2105
aa(lp2106
I13046
aaI64163795300
aI35218072396
aI0
aI-136
asS'inputPath15059'
p2107
(lp2108
I1
a(lp2109
S'job22269'
p2110
aa(lp2111
I72212
aaI1380141551918
aI1547297893592
aI0
aI59166
asS'inputPath11367'
p2112
(lp2113
I1
a(lp2114
S'job17023'
p2115
aa(lp2116
I58039
aaI57187772081
aI140993072752
aI0
aI-14173
asS'inputPath16845'
p2117
(lp2118
I1
a(lp2119
S'job24968'
p2120
aa(lp2121
I84315
aaI1677160920
aI5178345300
aI0
aI26276
asS'inputPath7607'
p2122
(lp2123
I1
a(lp2124
S'job11355'
p2125
aa(lp2126
I34637
aaI13752148442
aI11742467474
aI0
aI-49678
asS'inputPath7357'
p2127
(lp2128
I1
a(lp2129
S'job11028'
p2130
aa(lp2131
I33880
aaI210246249523
aI300379042569
aI0
aI-757
asS'inputPath7356'
p2132
(lp2133
I1
a(lp2134
S'job11024'
p2135
aa(lp2136
I33877
aaI21798962626
aI51383937051
aI0
aI-3
asS'inputPath11338'
p2137
(lp2138
I1
a(lp2139
S'job16980'
p2140
aa(lp2141
I57927
aaI6873694507
aI12529643190
aI0
aI24050
asS'inputPath5828'
p2142
(lp2143
I1
a(lp2144
S'job8595'
p2145
aa(lp2146
I26195
aaI989687178289
aI578712446592
aI0
aI-31732
asS'inputPath16532'
p2147
(lp2148
I1
a(lp2149
S'job24465'
p2150
aa(lp2151
I80972
aaI1066190276346
aI1914339043040
aI0
aI54777
asS'inputPath6737'
p2152
(lp2153
I1
a(lp2154
S'job10136'
p2155
aa(lp2156
I31364
aaI111893547852
aI63067280253
aI0
aI-49608
asS'inputPath6730'
p2157
(lp2158
I1
a(lp2159
S'job10123'
p2160
aa(lp2161
I31311
aaI5141455576
aI7035078467
aI0
aI-53
asS'inputPath7358'
p2162
(lp2163
I1
a(lp2164
S'job11029'
p2165
aa(lp2166
I33882
aaI4683266870
aI7200643663
aI0
aI2571
asS'inputPath8301'
p2167
(lp2168
I2
a(lp2169
S'job12435'
p2170
aS'job12436'
p2171
aa(lp2172
I39933
aI39934
aaI6408023112
aI38554766031
aI1
aI6051
asS'inputPath4861'
p2173
(lp2174
I1
a(lp2175
S'job7035'
p2176
aa(lp2177
I22595
aaI1451286799
aI1933190730
aI0
aI-17339
asS'inputPath12976'
p2178
(lp2179
I1
a(lp2180
S'job19316'
p2181
aa(lp2182
I63733
aaI5414599519
aI3828464125
aI0
aI41138
asS'inputPath2602'
p2183
(lp2184
I1
a(lp2185
S'job3516'
p2186
aa(lp2187
I11053
aaI20437401544
aI9007567047
aI0
aI-52680
asS'inputPath10054'
p2188
(lp2189
I1
a(lp2190
S'job14987'
p2191
aa(lp2192
I48225
aaI1189198126
aI3083413480
aI0
aI37172
asS'inputPath12972'
p2193
(lp2194
I3
a(lp2195
S'job19317'
p2196
aS'job19324'
p2197
aS'job19327'
p2198
aa(lp2199
I63734
aI63742
aI63745
aaI2066976693
aI1889148750
aI11
aI15509
asS'inputPath2973'
p2200
(lp2201
I6
a(lp2202
S'job4173'
p2203
aS'job4177'
p2204
aS'job4184'
p2205
aS'job4189'
p2206
aS'job4193'
p2207
aS'job4477'
p2208
aa(lp2209
I12951
aI12955
aI12969
aI12985
aI12999
aI13883
aaI246891857838
aI253636304204
aI932
aI-50794
asS'inputPath10198'
p2210
(lp2211
I1
a(lp2212
S'job15266'
p2213
aa(lp2214
I49103
aaI113906076324
aI63588451258
aI0
aI35220
asS'inputPath11458'
p2215
(lp2216
I1
a(lp2217
S'job17169'
p2218
aa(lp2219
I58241
aaI305173588447
aI1784603950007
aI0
aI9138
asS'inputPath4707'
p2220
(lp2221
I1
a(lp2222
S'job6799'
p2223
aa(lp2224
I21665
aaI2104780289
aI2930989116
aI0
aI-36576
asS'inputPath6181'
p2225
(lp2226
I1
a(lp2227
S'job9239'
p2228
aa(lp2229
I28355
aaI1035232766157
aI1109384939342
aI0
aI6690
asS'inputPath1554'
p2230
(lp2231
I1
a(lp2232
S'job2056'
p2233
aa(lp2234
I5716
aaI20112451317
aI8945871422
aI0
aI-22639
asS'inputPath1557'
p2235
(lp2236
I1
a(lp2237
S'job2061'
p2238
aa(lp2239
I5731
aaI20106797809
aI8957160898
aI0
aI15
asS'inputPath4700'
p2240
(lp2241
I1
a(lp2242
S'job6792'
p2243
aa(lp2244
I21639
aaI197126766283
aI759986541579
aI0
aI15908
asS'inputPath16409'
p2245
(lp2246
I1
a(lp2247
S'job24276'
p2248
aa(lp2249
I79836
aaI5693177660
aI10578209240
aI0
aI58197
asS'inputPath5373'
p2250
(lp2251
I1
a(lp2252
S'job7833'
p2253
aa(lp2254
I24218
aaI5897439662
aI3098818783
aI0
aI-55618
asS'inputPath15424'
p2255
(lp2256
I1
a(lp2257
S'job22820'
p2258
aa(lp2259
I75079
aaI4417685548
aI13175304001
aI0
aI50861
asS'inputPath12643'
p2260
(lp2261
I1
a(lp2262
S'job18888'
p2263
aa(lp2264
I62973
aaI929018475258
aI1413198108797
aI0
aI-12106
asS'inputPath13701'
p2265
(lp2266
I1
a(lp2267
S'job20298'
p2268
aa(lp2269
I66294
aaI54679566781
aI287242779081
aI0
aI3321
asS'inputPath16696'
p2270
(lp2271
I1
a(lp2272
S'job24746'
p2273
aa(lp2274
I83132
aaI1467721544
aI4319843126
aI0
aI16838
asS'inputPath11115'
p2275
(lp2276
I1
a(lp2277
S'job16646'
p2278
aa(lp2279
I56989
aaI512289280169
aI1039696355962
aI0
aI-26143
asS'inputPath10099'
p2280
(lp2281
I1
a(lp2282
S'job15060'
p2283
aa(lp2284
I48440
aaI136066968235
aI222755736929
aI0
aI-8549
asS'inputPath475'
p2285
(lp2286
I1
a(lp2287
S'job628'
p2288
aa(lp2289
I2259
aaI12009115062
aI10378504997
aI0
aI-46181
asS'inputPath12947'
p2290
(lp2291
I1
a(lp2292
S'job19266'
p2293
aa(lp2294
I63592
aaI10922221932
aI13474489370
aI0
aI61333
asS'inputPath3956'
p2295
(lp2296
I1
a(lp2297
S'job5669'
p2298
aa(lp2299
I17928
aaI51935123154
aI80568295939
aI0
aI-45664
asS'inputPath11052'
p2300
(lp2301
I1
a(lp2302
S'job16550'
p2303
aa(lp2304
I56290
aaI1562840295
aI782313561
aI0
aI38362
asS'inputPath13734'
p2305
(lp2306
I1
a(lp2307
S'job20341'
p2308
aa(lp2309
I66391
aaI216954325291
aI438846261627
aI0
aI10101
asS'inputPath8988'
p2310
(lp2311
I1
a(lp2312
S'job13363'
p2313
aa(lp2314
I42524
aaI8561294019
aI8202186436
aI0
aI-23867
asS'inputPath2892'
p2315
(lp2316
I1
a(lp2317
S'job4013'
p2318
aa(lp2319
I12550
aaI83865619724
aI82277691736
aI0
aI-29974
asS'inputPath10556'
p2320
(lp2321
I1
a(lp2322
S'job15804'
p2323
aa(lp2324
I51541
aaI7055776259
aI5928432327
aI0
aI38991
asS'inputPath6060'
p2325
(lp2326
I1
a(lp2327
S'job9044'
p2328
aa(lp2329
I27501
aaI1775983038
aI2521502765
aI0
aI-24040
asS'inputPath10554'
p2330
(lp2331
I1
a(lp2332
S'job15800'
p2333
aa(lp2334
I51522
aaI6505371775
aI5627899572
aI0
aI24021
asS'inputPath4546'
p2335
(lp2336
I1
a(lp2337
S'job6565'
p2338
aa(lp2339
I20723
aaI1760370130
aI1519388283
aI0
aI-30799
asS'inputPath10552'
p2340
(lp2341
I1
a(lp2342
S'job15797'
p2343
aa(lp2344
I51519
aaI301435983681
aI987487147190
aI0
aI30796
asS'inputPath10419'
p2345
(lp2346
I1
a(lp2347
S'job15623'
p2348
aa(lp2349
I50427
aaI37496516407
aI37952922229
aI0
aI-1092
asS'inputPath10228'
p2350
(lp2351
I1
a(lp2352
S'job15328'
p2353
aa(lp2354
I49434
aaI1328473025
aI2891437622
aI0
aI-993
asS'inputPath2076'
p2355
(lp2356
I1
a(lp2357
S'job2774'
p2358
aa(lp2359
I7080
aaI28638892132
aI46334973849
aI0
aI-42354
asS'inputPath8156'
p2360
(lp2361
I1
a(lp2362
S'job12176'
p2363
aa(lp2364
I38020
aaI193301933479
aI343649410413
aI0
aI30940
asS'inputPath13731'
p2365
(lp2366
I1
a(lp2367
S'job20337'
p2368
aa(lp2369
I66381
aaI1535674874
aI1078762467
aI0
aI28361
asS'inputPath16440'
p2370
(lp2371
I1
a(lp2372
S'job24327'
p2373
aa(lp2374
I80086
aaI816478112688
aI1060746035523
aI0
aI13705
asS'inputPath16441'
p2375
(lp2376
I1
a(lp2377
S'job24328'
p2378
aa(lp2379
I80086
aaI812062367731
aI1059722999935
aI0
aI0
asS'inputPath5573'
p2380
(lp2381
I1
a(lp2382
S'job8170'
p2383
aa(lp2384
I25258
aaI1923024731
aI1659367651
aI0
aI-54828
asS'inputPath5572'
p2385
(lp2386
I1
a(lp2387
S'job8980'
p2388
aa(lp2389
I27341
aaI1923024731
aI2247011834
aI0
aI2083
asS'inputPath9834'
p2390
(lp2391
I1
a(lp2392
S'job14593'
p2393
aa(lp2394
I46999
aaI2306315736
aI2653383556
aI0
aI19658
asS'inputPath6352'
p2395
(lp2396
I1
a(lp2397
S'job9491'
p2398
aa(lp2399
I29358
aaI1222150926
aI1531634886
aI0
aI-17641
asS'inputPath7927'
p2400
(lp2401
I1
a(lp2402
S'job11814'
p2403
aa(lp2404
I35771
aaI64599751768
aI24773291068
aI0
aI6413
asS'inputPath7696'
p2405
(lp2406
I1
a(lp2407
S'job11467'
p2408
aa(lp2409
I34913
aaI1578374281
aI4218643416
aI0
aI-858
asS'inputPath9831'
p2410
(lp2411
I1
a(lp2412
S'job14590'
p2413
aa(lp2414
I46990
aaI151880852800
aI724724523643
aI0
aI12077
asS'inputPath11809'
p2415
(lp2416
I1
a(lp2417
S'job17657'
p2418
aa(lp2419
I59564
aaI63917798154
aI227272764394
aI0
aI12574
asS'inputPath2393'
p2420
(lp2421
I1
a(lp2422
S'job3204'
p2423
aa(lp2424
I9359
aaI52428162131
aI32764279680
aI0
aI-50205
asS'inputPath11803'
p2425
(lp2426
I1
a(lp2427
S'job17649'
p2428
aa(lp2429
I59522
aaI1014377030759
aI5511341632152
aI0
aI50163
asS'inputPath14899'
p2430
(lp2431
I1
a(lp2432
S'job22016'
p2433
aa(lp2434
I71396
aaI92756253939
aI413950622541
aI0
aI11874
asS'inputPath5206'
p2435
(lp2436
I1
a(lp2437
S'job7556'
p2438
aa(lp2439
I23637
aaI260871106959
aI383772829676
aI0
aI-47759
asS'inputPath2398'
p2440
(lp2441
I1
a(lp2442
S'job3210'
p2443
aa(lp2444
I9420
aaI282611042725
aI230385878283
aI0
aI-14217
asS'inputPath3309'
p2445
(lp2446
I1
a(lp2447
S'job4703'
p2448
aa(lp2449
I14484
aaI51935123154
aI80362385453
aI0
aI5064
asS'inputPath2155'
p2450
(lp2451
I1
a(lp2452
S'job2876'
p2453
aa(lp2454
I7433
aaI1256017038360
aI944217207138
aI0
aI-7051
asS'inputPath10630'
p2455
(lp2456
I1
a(lp2457
S'job15903'
p2458
aa(lp2459
I52122
aaI6499998534
aI5615460285
aI0
aI44689
asS'inputPath6458'
p2460
(lp2461
I4
a(lp2462
S'job10051'
p2463
aS'job10152'
p2464
aS'job10250'
p2465
aS'job10329'
p2466
aa(lp2467
I31154
aI31393
aI31700
aI32001
aaI7037775042
aI4866659828
aI847
aI-20968
asS'inputPath11817'
p2468
(lp2469
I1
a(lp2470
S'job17671'
p2471
aa(lp2472
I59600
aaI84922307623
aI295514208869
aI0
aI27599
asS'inputPath8409'
p2473
(lp2474
I1
a(lp2475
S'job12584'
p2476
aa(lp2477
I40167
aaI228453675787
aI275668312582
aI0
aI-19433
asS'inputPath1607'
p2478
(lp2479
I1
a(lp2480
S'job2130'
p2481
aa(lp2482
I5883
aaI21633944622
aI51456679355
aI0
aI-34284
asS'inputPath9682'
p2483
(lp2484
I1
a(lp2485
S'job14363'
p2486
aa(lp2487
I46353
aaI69029498564
aI65373114294
aI0
aI40470
asS'inputPath5939'
p2488
(lp2489
I1
a(lp2490
S'job8814'
p2491
aa(lp2492
I26903
aaI4214777249
aI5587231838
aI0
aI-19450
asS'inputPath14237'
p2493
(lp2494
I1
a(lp2495
S'job20967'
p2496
aa(lp2497
I68370
aaI25604428891
aI12456147283
aI0
aI41467
asS'inputPath179'
p2498
(lp2499
I1
a(lp2500
S'job278'
p2501
aa(lp2502
I1510
aaI1419682049
aI3836991447
aI0
aI-66860
asS'inputPath4007'
p2503
(lp2504
I1
a(lp2505
S'job5742'
p2506
aa(lp2507
I18101
aaI3926784138
aI19982583335
aI0
aI16591
asS'inputPath7926'
p2508
(lp2509
I1
a(lp2510
S'job11813'
p2511
aa(lp2512
I35768
aaI262694131303
aI88049413533
aI0
aI17667
asS'inputPath5931'
p2513
(lp2514
I1
a(lp2515
S'job8782'
p2516
aa(lp2517
I26837
aaI115522858626
aI63967331515
aI0
aI-8931
asS'inputPath7774'
p2518
(lp2519
I2
a(lp2520
S'job11582'
p2521
aS'job11605'
p2522
aa(lp2523
I35179
aI35213
aaI67149773956
aI400567907143
aI34
aI8342
asS'inputPath172'
p2524
(lp2525
I1
a(lp2526
S'job269'
p2527
aa(lp2528
I1476
aaI11852529675
aI6865089255
aI0
aI-33737
asS'inputPath5934'
p2529
(lp2530
I1
a(lp2531
S'job8804'
p2532
aa(lp2533
I26862
aaI79071213172
aI30584359624
aI0
aI25386
asS'inputPath2559'
p2534
(lp2535
I1
a(lp2536
S'job3775'
p2537
aa(lp2538
I11910
aaI1980050136
aI2115844577
aI0
aI-14952
asS'inputPath9830'
p2539
(lp2540
I1
a(lp2541
S'job14589'
p2542
aa(lp2543
I46987
aaI113912688698
aI63605853698
aI0
aI35077
asS'inputPath11893'
p2544
(lp2545
I1
a(lp2546
S'job17793'
p2547
aa(lp2548
I59923
aaI15615522113
aI47121637203
aI0
aI12936
asS'inputPath12492'
p2549
(lp2550
I1
a(lp2551
S'job18660'
p2552
aa(lp2553
I62288
aaI1731531054
aI2236158402
aI0
aI2365
asS'inputPath2803'
p2554
(lp2555
I1
a(lp2556
S'job3862'
p2557
aa(lp2558
I12140
aaI6361747517
aI8667769038
aI0
aI-50148
asS'inputPath16742'
p2559
(lp2560
I1
a(lp2561
S'job24814'
p2562
aa(lp2563
I83611
aaI3071404433
aI7005733225
aI0
aI71471
asS'inputPath8841'
p2564
(lp2565
I1
a(lp2566
S'job13194'
p2567
aa(lp2568
I42158
aaI10657628053
aI16761412373
aI0
aI-41453
asS'inputPath14999'
p2569
(lp2570
I1
a(lp2571
S'job22180'
p2572
aa(lp2573
I71944
aaI116566726152
aI62682362691
aI0
aI29786
asS'inputPath9041'
p2574
(lp2575
I1
a(lp2576
S'job13459'
p2577
aa(lp2578
I43108
aaI12327155786
aI6942451854
aI0
aI-28836
asS'inputPath9040'
p2579
(lp2580
I1
a(lp2581
S'job13457'
p2582
aa(lp2583
I43086
aaI1431372948
aI4052940835
aI0
aI-22
asS'inputPath15827'
p2584
(lp2585
I1
a(lp2586
S'job23374'
p2587
aa(lp2588
I76774
aaI4289415311
aI15485787907
aI0
aI33688
asS'inputPath12639'
p2589
(lp2590
I1
a(lp2591
S'job18882'
p2592
aa(lp2593
I62952
aaI61040893139
aI159984640879
aI0
aI-13822
asS'inputPath8276'
p2594
(lp2595
I1
a(lp2596
S'job12393'
p2597
aa(lp2598
I39708
aaI177740963730
aI177254101822
aI0
aI-23244
asS'inputPath8275'
p2599
(lp2600
I1
a(lp2601
S'job12391'
p2602
aa(lp2603
I39697
aaI27675697720
aI28922466974
aI0
aI-11
asS'inputPath13052'
p2604
(lp2605
I1
a(lp2606
S'job19420'
p2607
aa(lp2608
I63968
aaI3440521559
aI3637596542
aI0
aI24271
asS'inputPath15978'
p2609
(lp2610
I1
a(lp2611
S'job23610'
p2612
aa(lp2613
I77785
aaI7952201913
aI7161636929
aI0
aI13817
asS'inputPath3234'
p2614
(lp2615
I1
a(lp2616
S'job4600'
p2617
aa(lp2618
I14210
aaI5145729224
aI3660349722
aI0
aI-63575
asS'inputPath10603'
p2619
(lp2620
I1
a(lp2621
S'job15868'
p2622
aa(lp2623
I51960
aaI4492146398
aI6202394154
aI0
aI37750
asS'inputPath16920'
p2624
(lp2625
I1
a(lp2626
S'job25100'
p2627
aa(lp2628
I85178
aaI114866747040
aI62766840474
aI0
aI33218
asS'inputPath2321'
p2629
(lp2630
I1
a(lp2631
S'job3109'
p2632
aa(lp2633
I8796
aaI31568474616
aI27493417819
aI0
aI-76382
asS'inputPath9651'
p2634
(lp2635
I1
a(lp2636
S'job14311'
p2637
aa(lp2638
I46194
aaI2983365047
aI3014285109
aI0
aI37398
asS'inputPath14092'
p2639
(lp2640
I1
a(lp2641
S'job20784'
p2642
aa(lp2643
I67833
aaI1835078516
aI1870920476
aI0
aI21639
asS'inputPath11979'
p2644
(lp2645
I9
a(lp2646
S'job17925'
p2647
aS'job17926'
p2648
aS'job17927'
p2649
aS'job17928'
p2650
aS'job17929'
p2651
aS'job17931'
p2652
aS'job17932'
p2653
aS'job17933'
p2654
aS'job17934'
p2655
aa(lp2656
I60193
aI60193
aI60194
aI60195
aI60195
aI60197
aI60200
aI60202
aI60206
aaI36078040024
aI31475339059
aI13
aI-7640
asS'inputPath10979'
p2657
(lp2658
I1
a(lp2659
S'job16435'
p2660
aa(lp2661
I55623
aaI2976522553
aI3898789003
aI0
aI-4583
asS'inputPath1825'
p2662
(lp2663
I1
a(lp2664
S'job2422'
p2665
aa(lp2666
I6372
aaI5434148724
aI36601827030
aI0
aI-49251
asS'inputPath94'
p2667
(lp2668
I1
a(lp2669
S'job845'
p2670
aa(lp2671
I2741
aaI2550699740880
aI1935646640358
aI0
aI-3631
asS'inputPath6070'
p2672
(lp2673
I1
a(lp2674
S'job9060'
p2675
aa(lp2676
I27572
aaI2539059710
aI2919281146
aI0
aI24831
asS'inputPath6077'
p2677
(lp2678
I1
a(lp2679
S'job9070'
p2680
aa(lp2681
I27595
aaI2055128085
aI1256223677
aI0
aI23
asS'inputPath13935'
p2682
(lp2683
I1
a(lp2684
S'job20592'
p2685
aa(lp2686
I67187
aaI7648843625
aI23020433033
aI0
aI39592
asS'inputPath14529'
p2687
(lp2688
I1
a(lp2689
S'job21449'
p2690
aa(lp2691
I69756
aaI29998291971
aI32333568218
aI0
aI2569
asS'inputPath4670'
p2692
(lp2693
I1
a(lp2694
S'job6751'
p2695
aa(lp2696
I21406
aaI7870383696
aI14610915614
aI0
aI-48350
asS'inputPath6078'
p2697
(lp2698
I1
a(lp2699
S'job9072'
p2700
aa(lp2701
I27599
aaI239411926691
aI316830398540
aI0
aI6193
asS'inputPath14523'
p2702
(lp2703
I1
a(lp2704
S'job21439'
p2705
aa(lp2706
I69731
aaI2725551708
aI4960690847
aI0
aI42132
asS'inputPath98'
p2707
(lp2708
I1
a(lp2709
S'job142'
p2710
aa(lp2711
I708
aaI31609111287
aI31659359963
aI0
aI-69023
asS'inputPath302'
p2712
(lp2713
I1
a(lp2714
S'job429'
p2715
aa(lp2716
I1895
aaI25027450515
aI44803071814
aI0
aI1187
asS'inputPath10531'
p2717
(lp2718
I1
a(lp2719
S'job15768'
p2720
aa(lp2721
I51368
aaI1323327211
aI1373122471
aI0
aI49473
asS'inputPath14243'
p2722
(lp2723
I1
a(lp2724
S'job20975'
p2725
aa(lp2726
I68404
aaI3174025481
aI10140513791
aI0
aI17036
asS'inputPath11738'
p2727
(lp2728
I1
a(lp2729
S'job17574'
p2730
aa(lp2731
I59260
aaI8013042408
aI36659553719
aI0
aI-9144
asS'inputPath14601'
p2732
(lp2733
I1
a(lp2734
S'job21564'
p2735
aa(lp2736
I70036
aaI55039362634
aI269882821194
aI0
aI10776
asS'inputPath3731'
p2737
(lp2738
I1
a(lp2739
S'job5312'
p2740
aa(lp2741
I16828
aaI22935816693
aI146246486270
aI0
aI-53208
asS'inputPath6587'
p2742
(lp2743
I1
a(lp2744
S'job9896'
p2745
aa(lp2746
I30766
aaI182020681412
aI82331237610
aI0
aI13938
asS'inputPath4757'
p2747
(lp2748
I1
a(lp2749
S'job6879'
p2750
aa(lp2751
I21978
aaI1445632102
aI2937617279
aI0
aI-8788
asS'inputPath4699'
p2752
(lp2753
I1
a(lp2754
S'job6791'
p2755
aa(lp2756
I21637
aaI36344848147
aI26000893449
aI0
aI-341
asS'inputPath9867'
p2757
(lp2758
I1
a(lp2759
S'job14649'
p2760
aa(lp2761
I47168
aaI171511056838
aI66785336647
aI0
aI25531
asS'inputPath14468'
p2762
(lp2763
I1
a(lp2764
S'job21361'
p2765
aa(lp2766
I69553
aaI6946751222906
aI1812912599715
aI0
aI22385
asS'inputPath14700'
p2767
(lp2768
I1
a(lp2769
S'job21709'
p2770
aa(lp2771
I70512
aaI40310076521
aI267441348472
aI0
aI959
asS'inputPath9292'
p2772
(lp2773
I1
a(lp2774
S'job13795'
p2775
aa(lp2776
I44484
aaI91352520482
aI59542820136
aI0
aI-26028
asS'inputPath8935'
p2777
(lp2778
I1
a(lp2779
S'job13301'
p2780
aa(lp2781
I42460
aaI5121322994
aI33588511174
aI0
aI-2024
asS'inputPath16740'
p2782
(lp2783
I1
a(lp2784
S'job24812'
p2785
aa(lp2786
I83610
aaI1267623177
aI1414813125
aI0
aI41150
asS'inputPath4696'
p2787
(lp2788
I1
a(lp2789
S'job6788'
p2790
aa(lp2791
I21627
aaI52778501381
aI226706970598
aI0
aI-61983
asS'inputPath4758'
p2792
(lp2793
I1
a(lp2794
S'job6881'
p2795
aa(lp2796
I21982
aaI1447897195
aI2959562060
aI0
aI355
asS'inputPath4690'
p2797
(lp2798
I1
a(lp2799
S'job6782'
p2800
aa(lp2801
I21606
aaI37107252495
aI26027324514
aI0
aI-376
asS'inputPath6388'
p2802
(lp2803
I1
a(lp2804
S'job9545'
p2805
aa(lp2806
I29542
aaI1613252346
aI2224828974
aI0
aI7936
asS'inputPath3042'
p2807
(lp2808
I1
a(lp2809
S'job4276'
p2810
aa(lp2811
I13254
aaI2587044208
aI3772406854
aI0
aI-16288
asS'inputPath3308'
p2812
(lp2813
I1
a(lp2814
S'job4702'
p2815
aa(lp2816
I14479
aaI115454664070
aI63872397952
aI0
aI1225
asS'inputPath15314'
p2817
(lp2818
I1
a(lp2819
S'job22665'
p2820
aa(lp2821
I74552
aaI260857691226
aI466433354159
aI0
aI60073
asS'inputPath10474'
p2822
(lp2823
I1
a(lp2824
S'job15693'
p2825
aa(lp2826
I50888
aaI6505133728
aI5641636165
aI0
aI-23664
asS'inputPath6382'
p2827
(lp2828
I1
a(lp2829
S'job9536'
p2830
aa(lp2831
I29522
aaI1598731203
aI4515896343
aI0
aI-21366
asS'inputPath7314'
p2832
(lp2833
I1
a(lp2834
S'job10972'
p2835
aa(lp2836
I33683
aaI21815866453
aI67958511537
aI0
aI4161
asS'inputPath6575'
p2837
(lp2838
I1
a(lp2839
S'job9872'
p2840
aa(lp2841
I30700
aaI1424502775
aI2727802960
aI0
aI-2983
asS'inputPath4358'
p2842
(lp2843
I1
a(lp2844
S'job6272'
p2845
aa(lp2846
I19762
aaI2898626097
aI3487566562
aI0
aI-10938
asS'inputPath2938'
p2847
(lp2848
I1
a(lp2849
S'job4084'
p2850
aa(lp2851
I12759
aaI3179484159
aI11160666675
aI0
aI-7003
asS'inputPath8069'
p2852
(lp2853
I1
a(lp2854
S'job12035'
p2855
aa(lp2856
I36951
aaI4869060875
aI6858424389
aI0
aI24192
asS'inputPath9197'
p2857
(lp2858
I1
a(lp2859
S'job13674'
p2860
aa(lp2861
I43995
aaI2537641265
aI8071099531
aI0
aI7044
asS'inputPath16865'
p2862
(lp2863
I1
a(lp2864
S'job24998'
p2865
aa(lp2866
I84478
aaI114863810256
aI62776127698
aI0
aI40483
asS'inputPath4350'
p2867
(lp2868
I1
a(lp2869
S'job6261'
p2870
aa(lp2871
I19718
aaI331985650408
aI1754568764982
aI0
aI-64760
asS'inputPath16548'
p2872
(lp2873
I1
a(lp2874
S'job24498'
p2875
aa(lp2876
I81171
aaI42692892478
aI167570623126
aI0
aI61453
asS'inputPath3029'
p2877
(lp2878
I1
a(lp2879
S'job4258'
p2880
aa(lp2881
I13204
aaI2416624875
aI2990336296
aI0
aI-67967
asS'inputPath6676'
p2882
(lp2883
I1
a(lp2884
S'job10038'
p2885
aa(lp2886
I31102
aaI2351736567
aI1800224838
aI0
aI17898
asS'inputPath6574'
p2887
(lp2888
I1
a(lp2889
S'job10023'
p2890
aa(lp2891
I31073
aaI1424502775
aI2606538800
aI0
aI-29
asS'inputPath1219'
p2892
(lp2893
I1
a(lp2894
S'job1574'
p2895
aa(lp2896
I4555
aaI292833826124
aI105317998197
aI0
aI-26518
asS'inputPath2701'
p2897
(lp2898
I1
a(lp2899
S'job3672'
p2900
aa(lp2901
I11648
aaI35093808564
aI70756026949
aI0
aI7093
asS'inputPath8587'
p2902
(lp2903
I1
a(lp2904
S'job12833'
p2905
aa(lp2906
I40839
aaI40063709073
aI83319714085
aI0
aI29191
asS'inputPath4219'
p2907
(lp2908
I1
a(lp2909
S'job6077'
p2910
aa(lp2911
I19088
aaI8668871434
aI13440854238
aI0
aI-21751
asS'inputPath8588'
p2912
(lp2913
I1
a(lp2914
S'job12838'
p2915
aa(lp2916
I40850
aaI31581265599
aI31693321602
aI0
aI21762
asS'inputPath16506'
p2917
(lp2918
I1
a(lp2919
S'job24418'
p2920
aa(lp2921
I80538
aaI221756410372
aI547382870092
aI0
aI39688
asS'inputPath13936'
p2922
(lp2923
I1
a(lp2924
S'job20593'
p2925
aa(lp2926
I67193
aaI225191400606
aI208174426771
aI0
aI-13345
asS'inputPath14739'
p2927
(lp2928
I1
a(lp2929
S'job21764'
p2930
aa(lp2931
I70606
aaI8863535997
aI26307362163
aI0
aI3413
asS'inputPath12088'
p2932
(lp2933
I1
a(lp2934
S'job18096'
p2935
aa(lp2936
I60838
aaI1485136373892
aI7202757052210
aI0
aI-9768
asS'inputPath6881'
p2937
(lp2938
I1
a(lp2939
S'job10387'
p2940
aa(lp2941
I32240
aaI2075231121
aI4824351622
aI0
aI-28598
asS'inputPath6814'
p2942
(lp2943
I1
a(lp2944
S'job10278'
p2945
aa(lp2946
I31807
aaI1532487174
aI2536286649
aI0
aI-433
asS'inputPath7954'
p2947
(lp2948
I1
a(lp2949
S'job11847'
p2950
aa(lp2951
I35838
aaI8354638236
aI43997576952
aI0
aI4031
asS'inputPath9087'
p2952
(lp2953
I1
a(lp2954
S'job13521'
p2955
aa(lp2956
I43366
aaI13377100178
aI10402206764
aI0
aI7528
asS'inputPath4521'
p2957
(lp2958
I1
a(lp2959
S'job6530'
p2960
aa(lp2961
I20596
aaI1508639263
aI1076772907
aI0
aI-22770
asS'inputPath4527'
p2962
(lp2963
I1
a(lp2964
S'job6536'
p2965
aa(lp2966
I20630
aaI1122991221
aI731161792
aI0
aI34
asS'inputPath4525'
p2967
(lp2968
I1
a(lp2969
S'job6534'
p2970
aa(lp2971
I20618
aaI1995316033
aI1500209199
aI0
aI-12
asS'inputPath10459'
p2972
(lp2973
I1
a(lp2974
S'job15671'
p2975
aa(lp2976
I50766
aaI1302893472
aI1411254550
aI0
aI30148
asS'inputPath11010'
p2977
(lp2978
I1
a(lp2979
S'job16479'
p2980
aa(lp2981
I55881
aaI11336060445
aI43956966037
aI0
aI5115
asS'inputPath6428'
p2982
(lp2983
I1
a(lp2984
S'job9614'
p2985
aa(lp2986
I29751
aaI111889702766
aI63057573527
aI0
aI-26130
asS'inputPath15163'
p2987
(lp2988
I1
a(lp2989
S'job22426'
p2990
aa(lp2991
I72998
aaI17827187931
aI12730340549
aI0
aI43247
asS'inputPath10905'
p2992
(lp2993
I1
a(lp2994
S'job16311'
p2995
aa(lp2996
I54949
aaI17890932312
aI99199176617
aI0
aI-18049
asS'inputPath10452'
p2997
(lp2998
I1
a(lp2999
S'job15663'
p3000
aa(lp3001
I50685
aaI15175162813
aI11069380886
aI0
aI-4264
asS'inputPath8622'
p3002
(lp3003
I1
a(lp3004
S'job12882'
p3005
aa(lp3006
I40961
aaI1462921885
aI2986816145
aI0
aI-9724
asS'inputPath9256'
p3007
(lp3008
I1
a(lp3009
S'job13752'
p3010
aa(lp3011
I44248
aaI6143497957
aI8545307835
aI0
aI3287
asS'inputPath15401'
p3012
(lp3013
I1
a(lp3014
S'job22780'
p3015
aa(lp3016
I74963
aaI5659278036
aI4638556213
aI0
aI30715
asS'inputPath10903'
p3017
(lp3018
I1
a(lp3019
S'job16309'
p3020
aa(lp3021
I54939
aaI5584380013
aI4496052112
aI0
aI-20024
asS'inputPath14777'
p3022
(lp3023
I1
a(lp3024
S'job21817'
p3025
aa(lp3026
I70743
aaI1106545467
aI1545464734
aI0
aI15804
asS'inputPath16362'
p3027
(lp3028
I1
a(lp3029
S'job24214'
p3030
aa(lp3031
I79489
aaI3714752280
aI8192067646
aI0
aI8746
asS'inputPath13375'
p3032
(lp3033
I1
a(lp3034
S'job19853'
p3035
aa(lp3036
I64957
aaI1950490391
aI2005885789
aI0
aI-14532
asS'inputPath15332'
p3037
(lp3038
I1
a(lp3039
S'job22686'
p3040
aa(lp3041
I74608
aaI1097116765
aI1780879021
aI0
aI9651
asS'inputPath9313'
p3042
(lp3043
I1
a(lp3044
S'job13820'
p3045
aa(lp3046
I44557
aaI38801386174
aI170932482238
aI0
aI-30051
asS'inputPath13372'
p3047
(lp3048
I1
a(lp3049
S'job19846'
p3050
aa(lp3051
I64950
aaI19222828757
aI7055302183
aI0
aI20393
asS'inputPath6493'
p3052
(lp3053
I1
a(lp3054
S'job9737'
p3055
aa(lp3056
I30205
aaI1432768113
aI2717002523
aI0
aI-34745
asS'inputPath6230'
p3057
(lp3058
I1
a(lp3059
S'job9298'
p3060
aa(lp3061
I28629
aaI1728746432
aI3380400227
aI0
aI-1576
asS'inputPath11220'
p3062
(lp3063
I1
a(lp3064
S'job16827'
p3065
aa(lp3066
I57752
aaI11974434183
aI7649782696
aI0
aI29123
asS'inputPath5535'
p3067
(lp3068
I1
a(lp3069
S'job8109'
p3070
aa(lp3071
I25105
aaI32703979822
aI182746593918
aI0
aI-32647
asS'inputPath10982'
p3072
(lp3073
I1
a(lp3074
S'job16439'
p3075
aa(lp3076
I55630
aaI10235499272
aI10336169469
aI0
aI30525
asS'inputPath4952'
p3077
(lp3078
I1
a(lp3079
S'job7170'
p3080
aa(lp3081
I22956
aaI1295125948
aI737302017
aI0
aI-32674
asS'inputPath9349'
p3082
(lp3083
I1
a(lp3084
S'job13862'
p3085
aa(lp3086
I44737
aaI1167890394
aI1305745313
aI0
aI21781
asS'inputPath7965'
p3087
(lp3088
I1
a(lp3089
S'job11868'
p3090
aa(lp3091
I35910
aaI71117229106
aI180246109094
aI0
aI-8827
asS'inputPath13271'
p3092
(lp3093
I1
a(lp3094
S'job19699'
p3095
aa(lp3096
I64562
aaI4921504521
aI3862145718
aI0
aI28652
asS'inputPath7382'
p3097
(lp3098
I1
a(lp3099
S'job11062'
p3100
aa(lp3101
I33977
aaI1175243333959
aI449385715735
aI0
aI-30585
asS'inputPath2638'
p3102
(lp3103
I1
a(lp3104
S'job3591'
p3105
aa(lp3106
I11305
aaI1755818775
aI2030185577
aI0
aI-22672
asS'inputPath9870'
p3107
(lp3108
I1
a(lp3109
S'job15423'
p3110
aa(lp3111
I49768
aaI2192098761
aI2267009576
aI0
aI38463
asS'inputPath4595'
p3112
(lp3113
I1
a(lp3114
S'job6633'
p3115
aa(lp3116
I20974
aaI6566947227
aI8128266787
aI0
aI-28794
asS'inputPath6315'
p3117
(lp3118
I1
a(lp3119
S'job9430'
p3120
aa(lp3121
I29106
aaI2341465566
aI2391233245
aI0
aI8132
asS'inputPath4456'
p3122
(lp3123
I1
a(lp3124
S'job6420'
p3125
aa(lp3126
I20203
aaI1910512751
aI1609705840
aI0
aI-8903
asS'inputPath4327'
p3127
(lp3128
I1
a(lp3129
S'job6230'
p3130
aa(lp3131
I19605
aaI53814564368
aI86032895761
aI0
aI-598
asS'inputPath2632'
p3132
(lp3133
I1
a(lp3134
S'job3579'
p3135
aa(lp3136
I11229
aaI59614900727
aI61577177190
aI0
aI-8376
asS'inputPath9976'
p3137
(lp3138
I1
a(lp3139
S'job14862'
p3140
aa(lp3141
I47785
aaI8353735740
aI17063416558
aI0
aI36556
asS'inputPath4451'
p3142
(lp3143
I1
a(lp3144
S'job6413'
p3145
aa(lp3146
I20186
aaI2700591701
aI2418778806
aI0
aI-27599
asS'inputPath9192'
p3147
(lp3148
I1
a(lp3149
S'job13667'
p3150
aa(lp3151
I43963
aaI1197882836747
aI458415322454
aI0
aI23777
asS'inputPath5241'
p3152
(lp3153
I1
a(lp3154
S'job7617'
p3155
aa(lp3156
I23727
aaI260980329663
aI383914910471
aI0
aI-20236
asS'inputPath2560'
p3157
(lp3158
I1
a(lp3159
S'job3468'
p3160
aa(lp3161
I10836
aaI1980050136
aI2173520669
aI0
aI-12891
asS'inputPath10621'
p3162
(lp3163
I1
a(lp3164
S'job15890'
p3165
aa(lp3166
I52069
aaI36004932472
aI29013873350
aI0
aI41233
asS'inputPath13964'
p3167
(lp3168
I1
a(lp3169
S'job20628'
p3170
aa(lp3171
I67289
aaI438112904972
aI1648576138412
aI0
aI15220
asS'inputPath13965'
p3172
(lp3173
I1
a(lp3174
S'job20629'
p3175
aa(lp3176
I67293
aaI19949921499
aI109313887218
aI0
aI4
asS'inputPath2442'
p3177
(lp3178
I1
a(lp3179
S'job3291'
p3180
aa(lp3181
I9895
aaI1418714052
aI1941479416
aI0
aI-57398
asS'inputPath2117'
p3182
(lp3183
I1
a(lp3184
S'job2833'
p3185
aa(lp3186
I7204
aaI7119945956
aI29587416381
aI0
aI-2691
asS'inputPath10478'
p3187
(lp3188
I1
a(lp3189
S'job15698'
p3190
aa(lp3191
I50938
aaI7070958674
aI5943863465
aI0
aI43734
asS'inputPath14907'
p3192
(lp3193
I1
a(lp3194
S'job22029'
p3195
aa(lp3196
I71415
aaI51505522908
aI65779325048
aI0
aI20477
asS'inputPath13515'
p3197
(lp3198
I1
a(lp3199
S'job20050'
p3200
aa(lp3201
I65302
aaI357000803718
aI1014039916291
aI0
aI-6113
asS'inputPath12975'
p3202
(lp3203
I5
a(lp3204
S'job19318'
p3205
aS'job19322'
p3206
aS'job19323'
p3207
aS'job19326'
p3208
aS'job19331'
p3209
aa(lp3210
I63734
aI63740
aI63742
aI63744
aI63750
aaI4137039998
aI3461202548
aI16
aI-1568
asS'inputPath500'
p3211
(lp3212
I1
a(lp3213
S'job656'
p3214
aa(lp3215
I2349
aaI2320734752
aI3624006597
aI0
aI-61401
asS'inputPath11645'
p3216
(lp3217
I1
a(lp3218
S'job17451'
p3219
aa(lp3220
I58805
aaI1096519559
aI1286576231
aI0
aI56456
asS'inputPath5971'
p3221
(lp3222
I1
a(lp3223
S'job8889'
p3224
aa(lp3225
I27078
aaI62812383014
aI72982221175
aI0
aI-31727
asS'inputPath14680'
p3226
(lp3227
I1
a(lp3228
S'job21673'
p3229
aa(lp3230
I70426
aaI3249260158
aI6853394389
aI0
aI43348
asS'inputPath14891'
p3231
(lp3232
I1
a(lp3233
S'job22007'
p3234
aa(lp3235
I71375
aaI811462786152
aI982166322398
aI0
aI949
asS'inputPath3865'
p3236
(lp3237
I1
a(lp3238
S'job5521'
p3239
aa(lp3240
I17382
aaI115869960577
aI63884477064
aI0
aI-53993
asS'inputPath2598'
p3241
(lp3242
I1
a(lp3243
S'job3512'
p3244
aa(lp3245
I11028
aaI20431297037
aI9025263695
aI0
aI-6354
asS'inputPath10428'
p3246
(lp3247
I1
a(lp3248
S'job15634'
p3249
aa(lp3250
I50516
aaI73044016133
aI245013590169
aI0
aI39488
asS'inputPath8713'
p3251
(lp3252
I1
a(lp3253
S'job13023'
p3254
aa(lp3255
I41362
aaI3539965807
aI6615859327
aI0
aI-9154
asS'inputPath11169'
p3256
(lp3257
I1
a(lp3258
S'job16725'
p3259
aa(lp3260
I57348
aaI2909589460
aI4928458296
aI0
aI15986
asS'inputPath139'
p3261
(lp3262
I1
a(lp3263
S'job211'
p3264
aa(lp3265
I1174
aaI20878071990
aI49821962708
aI0
aI-56174
asS'inputPath2597'
p3266
(lp3267
I1
a(lp3268
S'job3511'
p3269
aa(lp3270
I11027
aaI20443843213
aI9033240519
aI0
aI9853
asS'inputPath11087'
p3271
(lp3272
I1
a(lp3273
S'job16608'
p3274
aa(lp3275
I56702
aaI2615495713
aI16415341669
aI0
aI45675
asS'inputPath10420'
p3276
(lp3277
I1
a(lp3278
S'job16097'
p3279
aa(lp3280
I53400
aaI149096778574
aI165412527837
aI0
aI-3302
asS'inputPath10421'
p3281
(lp3282
I1
a(lp3283
S'job15625'
p3284
aa(lp3285
I50451
aaI149096778574
aI57891403340
aI0
aI-2949
asS'inputPath3517'
p3286
(lp3287
I1
a(lp3288
S'job5014'
p3289
aa(lp3290
I15685
aaI34542012433
aI48948471073
aI0
aI-34766
asS'inputPath7137'
p3291
(lp3292
I1
a(lp3293
S'job10709'
p3294
aa(lp3295
I32795
aaI3505819711
aI4914204429
aI0
aI17110
asS'inputPath2180'
p3296
(lp3297
I1
a(lp3298
S'job2913'
p3299
aa(lp3300
I7632
aaI1559525107
aI1436907598
aI0
aI-25163
asS'inputPath15450'
p3301
(lp3302
I1
a(lp3303
S'job22859'
p3304
aa(lp3305
I75245
aaI6528353630
aI5766834378
aI0
aI67613
asS'inputPath16950'
p3306
(lp3307
I1
a(lp3308
S'job25144'
p3309
aa(lp3310
I85429
aaI34767478205
aI22396445092
aI0
aI10184
asS'inputPath15278'
p3311
(lp3312
I1
a(lp3313
S'job22607'
p3314
aa(lp3315
I74201
aaI6368401921
aI7834506210
aI0
aI-11228
asS'inputPath8120'
p3316
(lp3317
I1
a(lp3318
S'job12117'
p3319
aa(lp3320
I37501
aaI627189490642
aI503802078022
aI0
aI-36700
asS'inputPath7775'
p3321
(lp3322
I1
a(lp3323
S'job11577'
p3324
aa(lp3325
I35174
aaI67149773956
aI164363008253
aI0
aI-2327
asS'inputPath2189'
p3326
(lp3327
I1
a(lp3328
S'job2927'
p3329
aa(lp3330
I7741
aaI49558752609
aI31432126820
aI0
aI-27433
asS'inputPath2188'
p3331
(lp3332
I1
a(lp3333
S'job2926'
p3334
aa(lp3335
I7740
aaI1429454391
aI2067767549
aI0
aI-1
asS'inputPath14665'
p3336
(lp3337
I1
a(lp3338
S'job21645'
p3339
aa(lp3340
I70365
aaI2768081385
aI6170024136
aI0
aI62625
asS'inputPath14292'
p3341
(lp3342
I1
a(lp3343
S'job21072'
p3344
aa(lp3345
I68807
aaI15228700509
aI6216875462
aI0
aI-1558
asS'inputPath3889'
p3346
(lp3347
I1
a(lp3348
S'job5553'
p3349
aa(lp3350
I17514
aaI104223731499
aI51803223162
aI0
aI-51293
asS'inputPath3888'
p3351
(lp3352
I1
a(lp3353
S'job5552'
p3354
aa(lp3355
I17513
aaI140522550938
aI212088416476
aI0
aI-1
asS'inputPath13013'
p3356
(lp3357
I1
a(lp3358
S'job19375'
p3359
aa(lp3360
I63885
aaI160813626460
aI346308891849
aI0
aI46372
asS'inputPath16287'
p3361
(lp3362
I1
a(lp3363
S'job24097'
p3364
aa(lp3365
I78987
aaI8290485293
aI7692566704
aI0
aI15102
asS'inputPath13011'
p3366
(lp3367
I1
a(lp3368
S'job19373'
p3369
aa(lp3370
I63873
aaI12097491470
aI61919714594
aI0
aI-15114
asS'inputPath13017'
p3371
(lp3372
I1
a(lp3373
S'job19379'
p3374
aa(lp3375
I63915
aaI69131970494
aI242648257656
aI0
aI42
asS'inputPath7229'
p3376
(lp3377
I1
a(lp3378
S'job10864'
p3379
aa(lp3380
I33424
aaI3128416198
aI4636169405
aI0
aI-30491
asS'inputPath10162'
p3381
(lp3382
I1
a(lp3383
S'job15186'
p3384
aa(lp3385
I48791
aaI64259867390
aI330278163240
aI0
aI15367
asS'inputPath10161'
p3386
(lp3387
I1
a(lp3388
S'job15588'
p3389
aa(lp3390
I50322
aaI64259867390
aI347222350146
aI0
aI1531
asS'inputPath15361'
p3391
(lp3392
I1
a(lp3393
S'job22804'
p3394
aa(lp3395
I75019
aaI1235192071
aI1634351301
aI0
aI24697
asS'inputPath6032'
p3396
(lp3397
I1
a(lp3398
S'job8982'
p3399
aa(lp3400
I27346
aaI2539060077
aI5775613675
aI0
aI-47673
asS'inputPath2202'
p3401
(lp3402
I1
a(lp3403
S'job2953'
p3404
aa(lp3405
I7916
aaI231778822176
aI189556206486
aI0
aI-19430
asS'inputPath5819'
p3406
(lp3407
I1
a(lp3408
S'job8575'
p3409
aa(lp3410
I26158
aaI1448267943
aI2110767475
aI0
aI18242
asS'inputPath13187'
p3411
(lp3412
I1
a(lp3413
S'job19583'
p3414
aa(lp3415
I64341
aaI122743992578
aI541539016702
aI0
aI38183
asS'inputPath11799'
p3416
(lp3417
I1
a(lp3418
S'job17645'
p3419
aa(lp3420
I59500
aaI19790656122
aI104299228326
aI0
aI-4841
asS'inputPath10874'
p3421
(lp3422
I1
a(lp3423
S'job16265'
p3424
aa(lp3425
I54544
aaI243777066765
aI1116459255328
aI0
aI-4956
asS'inputPath28'
p3426
(lp3427
I1
a(lp3428
S'job37'
p3429
aa(lp3430
I174
aaI29317298062
aI32325490309
aI0
aI-54370
asS'inputPath4132'
p3431
(lp3432
I1
a(lp3433
S'job5947'
p3434
aa(lp3435
I18700
aaI2899024656
aI5776011345
aI0
aI18526
asS'inputPath10488'
p3436
(lp3437
I1
a(lp3438
S'job15710'
p3439
aa(lp3440
I50991
aaI238539457216
aI347775129502
aI0
aI32291
asS'inputPath5774'
p3441
(lp3442
I1
a(lp3443
S'job8497'
p3444
aa(lp3445
I25960
aaI1187589568
aI892540890
aI0
aI-25031
asS'inputPath17105'
p3446
(lp3447
I2
a(lp3448
S'job25350'
p3449
aS'job25363'
p3450
aa(lp3451
I86175
aI86210
aaI114862902672
aI62768690433
aI35
aI60215
asS'inputPath12701'
p3452
(lp3453
I1
a(lp3454
S'job18969'
p3455
aa(lp3456
I63168
aaI4933803998
aI3942441254
aI0
aI-23042
asS'inputPath16149'
p3457
(lp3458
I1
a(lp3459
S'job23856'
p3460
aa(lp3461
I78435
aaI7941303630
aI7171815304
aI0
aI15267
asS'inputPath16639'
p3462
(lp3463
I1
a(lp3464
S'job24660'
p3465
aa(lp3466
I82487
aaI1393617507
aI1151084189
aI0
aI4052
asS'inputPath17122'
p3467
(lp3468
I1
a(lp3469
S'job25379'
p3470
aa(lp3471
I86288
aaI36810835980
aI23278882164
aI0
aI3801
asS'inputPath7044'
p3472
(lp3473
I1
a(lp3474
S'job10576'
p3475
aa(lp3476
I32643
aaI13776835311
aI11776449789
aI0
aI-53645
asS'inputPath15185'
p3477
(lp3478
I1
a(lp3479
S'job22464'
p3480
aa(lp3481
I73253
aaI23886660444
aI45413059740
aI0
aI40610
asS'inputPath14369'
p3482
(lp3483
I1
a(lp3484
S'job21185'
p3485
aa(lp3486
I69085
aaI2899675157
aI13307617247
aI0
aI-4168
asS'inputPath14683'
p3487
(lp3488
I1
a(lp3489
S'job21678'
p3490
aa(lp3491
I70436
aaI70474690084
aI400560733226
aI0
aI1351
asS'inputPath1260'
p3492
(lp3493
I1
a(lp3494
S'job1639'
p3495
aa(lp3496
I4757
aaI198432839693
aI66886718506
aI0
aI-65679
asS'inputPath1266'
p3497
(lp3498
I1
a(lp3499
S'job1647'
p3500
aa(lp3501
I4769
aaI28131670925
aI99502984234
aI0
aI12
asS'inputPath1265'
p3502
(lp3503
I1
a(lp3504
S'job1700'
p3505
aa(lp3506
I4927
aaI28131670925
aI103959615263
aI0
aI158
asS'inputPath9016'
p3507
(lp3508
I1
a(lp3509
S'job13409'
p3510
aa(lp3511
I42762
aaI227394385326
aI274047595985
aI0
aI37835
asS'inputPath4982'
p3512
(lp3513
I1
a(lp3514
S'job7203'
p3515
aa(lp3516
I23029
aaI1271151938
aI676089784
aI0
aI-19733
asS'inputPath9010'
p3517
(lp3518
I5
a(lp3519
S'job13393'
p3520
aS'job13398'
p3521
aS'job13400'
p3522
aS'job13401'
p3523
aS'job13458'
p3524
aa(lp3525
I42696
aI42707
aI42708
aI42709
aI43101
aaI236625259892
aI586769218640
aI405
aI19667
asS'inputPath3249'
p3526
(lp3527
I1
a(lp3528
S'job4618'
p3529
aa(lp3530
I14253
aaI1527667164
aI2458287892
aI0
aI-28848
asS'inputPath3165'
p3531
(lp3532
I1
a(lp3533
S'job4481'
p3534
aa(lp3535
I13892
aaI1308752733
aI2202748182
aI0
aI-361
asS'inputPath10886'
p3536
(lp3537
I1
a(lp3538
S'job16288'
p3539
aa(lp3540
I54735
aaI128271937092
aI205246238007
aI0
aI40843
asS'inputPath3240'
p3541
(lp3542
I1
a(lp3543
S'job4608'
p3544
aa(lp3545
I14232
aaI419481736900
aI706822157516
aI0
aI-40503
asS'inputPath3247'
p3546
(lp3547
I1
a(lp3548
S'job4616'
p3549
aa(lp3550
I14250
aaI125319835120
aI121377733098
aI0
aI18
asS'inputPath6619'
p3551
(lp3552
I1
a(lp3553
S'job10170'
p3554
aa(lp3555
I31438
aaI10739754673
aI4006997132
aI0
aI17188
asS'inputPath10882'
p3556
(lp3557
I1
a(lp3558
S'job16276'
p3559
aa(lp3560
I54643
aaI2654898125
aI1638882252
aI0
aI23205
asS'inputPath8223'
p3561
(lp3562
I1
a(lp3563
S'job12290'
p3564
aa(lp3565
I38712
aaI131561629670
aI191884922630
aI0
aI-15931
asS'inputPath4787'
p3566
(lp3567
I1
a(lp3568
S'job6925'
p3569
aa(lp3570
I22124
aaI1372931038
aI2822243672
aI0
aI-16588
asS'inputPath6102'
p3571
(lp3572
I1
a(lp3573
S'job9106'
p3574
aa(lp3575
I27799
aaI55087775255
aI18641973247
aI0
aI5675
asS'inputPath12642'
p3576
(lp3577
I1
a(lp3578
S'job18887'
p3579
aa(lp3580
I62971
aaI2500000363
aI4181514134
aI0
aI35172
asS'inputPath8546'
p3581
(lp3582
I1
a(lp3583
S'job12744'
p3584
aa(lp3585
I40547
aaI561964897554
aI3572811525448
aI0
aI-22424
asS'inputPath4628'
p3586
(lp3587
I1
a(lp3588
S'job6683'
p3589
aa(lp3590
I21127
aaI2310269876
aI1898130936
aI0
aI-19420
asS'inputPath5712'
p3591
(lp3592
I1
a(lp3593
S'job8368'
p3594
aa(lp3595
I25637
aaI19041508665
aI46550216578
aI0
aI4510
asS'inputPath4781'
p3596
(lp3597
I1
a(lp3598
S'job6912'
p3599
aa(lp3600
I22094
aaI1409429703
aI2880752371
aI0
aI-3543
asS'inputPath49'
p3601
(lp3602
I1
a(lp3603
S'job63'
p3604
aa(lp3605
I278
aaI20807036052
aI49754149516
aI0
aI-21816
asS'inputPath46'
p3606
(lp3607
I1
a(lp3608
S'job59'
p3609
aa(lp3610
I260
aaI20823087067
aI66095728974
aI0
aI-18
asS'inputPath6533'
p3611
(lp3612
I1
a(lp3613
S'job9798'
p3614
aa(lp3615
I30400
aaI2805080460
aI3355721580
aI0
aI30140
asS'inputPath4626'
p3616
(lp3617
I1
a(lp3618
S'job6681'
p3619
aa(lp3620
I21105
aaI3098671000
aI2771366990
aI0
aI-9295
asS'inputPath6531'
p3621
(lp3622
I1
a(lp3623
S'job9874'
p3624
aa(lp3625
I30713
aaI1892440043
aI1713880678
aI0
aI9608
asS'inputPath4620'
p3626
(lp3627
I1
a(lp3628
S'job6673'
p3629
aa(lp3630
I21092
aaI2000150015
aI1720865079
aI0
aI-9621
asS'inputPath5719'
p3631
(lp3632
I1
a(lp3633
S'job8375'
p3634
aa(lp3635
I25666
aaI1694099847
aI3339119359
aI0
aI4574
asS'inputPath41'
p3636
(lp3637
I1
a(lp3638
S'job52'
p3639
aa(lp3640
I238
aaI64864452894
aI25981586510
aI0
aI-25428
asS'inputPath910'
p3641
(lp3642
I1
a(lp3643
S'job1149'
p3644
aa(lp3645
I3627
aaI42039205687
aI80142701137
aI0
aI3389
asS'inputPath16790'
p3646
(lp3647
I1
a(lp3648
S'job24881'
p3649
aa(lp3650
I84018
aaI1939384781
aI1210178262
aI0
aI80391
asS'inputPath14515'
p3651
(lp3652
I1
a(lp3653
S'job21430'
p3654
aa(lp3655
I69705
aaI6840213517088
aI1680177834655
aI0
aI-14313
asS'inputPath14105'
p3656
(lp3657
I1
a(lp3658
S'job20799'
p3659
aa(lp3660
I67916
aaI466039046873
aI1245789722406
aI0
aI-1789
asS'inputPath4140'
p3661
(lp3662
I1
a(lp3663
S'job5959'
p3664
aa(lp3665
I18776
aaI8687999767
aI44342162165
aI0
aI-49140
asS'inputPath14511'
p3666
(lp3667
I1
a(lp3668
S'job21424'
p3669
aa(lp3670
I69685
aaI1493236731
aI5308703777
aI0
aI50909
asS'inputPath10187'
p3671
(lp3672
I1
a(lp3673
S'job15237'
p3674
aa(lp3675
I49022
aaI502373888638
aI2844720104839
aI0
aI-20663
asS'inputPath3645'
p3676
(lp3677
I1
a(lp3678
S'job5196'
p3679
aa(lp3680
I16448
aaI115856108317
aI63838315521
aI0
aI-32574
asS'inputPath14504'
p3681
(lp3682
I1
a(lp3683
S'job21414'
p3684
aa(lp3685
I69660
aaI5885484430
aI9550467324
aI0
aI53212
asS'inputPath4405'
p3686
(lp3687
I1
a(lp3688
S'job6344'
p3689
aa(lp3690
I19973
aaI1374368080189
aI5446312564070
aI0
aI-49687
asS'inputPath14635'
p3691
(lp3692
I1
a(lp3693
S'job21613'
p3694
aa(lp3695
I70346
aaI11181983636
aI4190595209
aI0
aI50373
asS'inputPath4769'
p3696
(lp3697
I1
a(lp3698
S'job6893'
p3699
aa(lp3700
I22040
aaI3752051430
aI9209161562
aI0
aI-48306
asS'inputPath2660'
p3701
(lp3702
I1
a(lp3703
S'job3627'
p3704
aa(lp3705
I11455
aaI18488827765
aI44988814188
aI0
aI-10585
asS'inputPath2661'
p3706
(lp3707
I1
a(lp3708
S'job3628'
p3709
aa(lp3710
I11471
aaI3544722112
aI6557644454
aI0
aI16
asS'inputPath15212'
p3711
(lp3712
I1
a(lp3713
S'job22503'
p3714
aa(lp3715
I73475
aaI2362788781
aI3480930478
aI0
aI62004
asS'inputPath4761'
p3716
(lp3717
I1
a(lp3718
S'job6884'
p3719
aa(lp3720
I21989
aaI1446859513
aI2491296435
aI0
aI-51486
asS'inputPath4763'
p3721
(lp3722
I1
a(lp3723
S'job6886'
p3724
aa(lp3725
I22009
aaI3506408773
aI9006896911
aI0
aI20
asS'inputPath16859'
p3726
(lp3727
I2
a(lp3728
S'job24988'
p3729
aS'job25027'
p3730
aa(lp3731
I84418
aI84653
aaI114860264466
aI62754630561
aI235
aI62409
asS'inputPath16858'
p3732
(lp3733
I1
a(lp3734
S'job25004'
p3735
aa(lp3736
I84502
aaI114860264409
aI62757287536
aI0
aI-151
asS'inputPath15328'
p3737
(lp3738
I1
a(lp3739
S'job22682'
p3740
aa(lp3741
I74594
aaI287335294102
aI423448870780
aI0
aI-9908
asS'inputPath10944'
p3742
(lp3743
I1
a(lp3744
S'job16370'
p3745
aa(lp3746
I55264
aaI9734796707
aI19149583631
aI0
aI-19330
asS'inputPath3018'
p3747
(lp3748
I1
a(lp3749
S'job4240'
p3750
aa(lp3751
I13132
aaI27795875255
aI257186030805
aI0
aI-42132
asS'inputPath3019'
p3752
(lp3753
I1
a(lp3754
S'job4241'
p3755
aa(lp3756
I13133
aaI58361039171
aI321229942265
aI0
aI1
asS'inputPath10949'
p3757
(lp3758
I1
a(lp3759
S'job16383'
p3760
aa(lp3761
I55314
aaI32841215602
aI142533471394
aI0
aI42181
asS'inputPath15323'
p3762
(lp3763
I1
a(lp3764
S'job22675'
p3765
aa(lp3766
I74574
aaI19371047387
aI10827928304
aI0
aI19260
asS'inputPath15049'
p3767
(lp3768
I1
a(lp3769
S'job22255'
p3770
aa(lp3771
I72127
aaI17856702685
aI12727644403
aI0
aI-2447
asS'inputPath15321'
p3772
(lp3773
I1
a(lp3774
S'job22673'
p3775
aa(lp3776
I74570
aaI142631035324
aI101118345672
aI0
aI2443
asS'inputPath687'
p3777
(lp3778
I1
a(lp3779
S'job889'
p3780
aa(lp3781
I2913
aaI7945982128
aI22017698156
aI0
aI-71657
asS'inputPath8093'
p3782
(lp3783
I1
a(lp3784
S'job12068'
p3785
aa(lp3786
I37230
aaI16575004999
aI27403432680
aI0
aI34317
asS'inputPath6091'
p3787
(lp3788
I1
a(lp3789
S'job9090'
p3790
aa(lp3791
I27721
aaI2366230262
aI2686055435
aI0
aI-9509
asS'inputPath16914'
p3792
(lp3793
I1
a(lp3794
S'job25084'
p3795
aa(lp3796
I85085
aaI3895389995
aI5699359368
aI0
aI57364
asS'inputPath17114'
p3797
(lp3798
I1
a(lp3799
S'job25367'
p3800
aa(lp3801
I86225
aaI114860448206
aI62759140986
aI0
aI1140
asS'inputPath7145'
p3802
(lp3803
I1
a(lp3804
S'job10720'
p3805
aa(lp3806
I32851
aaI8405421334
aI5230352628
aI0
aI-53374
asS'inputPath8220'
p3807
(lp3808
I1
a(lp3809
S'job12285'
p3810
aa(lp3811
I38692
aaI7688206434
aI21185811728
aI0
aI5841
asS'inputPath13293'
p3812
(lp3813
I1
a(lp3814
S'job19738'
p3815
aa(lp3816
I64715
aaI209372826984
aI688995389169
aI0
aI26023
asS'inputPath11304'
p3817
(lp3818
I1
a(lp3819
S'job16942'
p3820
aa(lp3821
I57885
aaI30493255389
aI12684388733
aI0
aI-6830
asS'inputPath6541'
p3822
(lp3823
I1
a(lp3824
S'job9813'
p3825
aa(lp3826
I30482
aaI2800335912
aI3355029379
aI0
aI-27403
asS'inputPath15263'
p3827
(lp3828
I1
a(lp3829
S'job22583'
p3830
aa(lp3831
I74022
aaI1479306926
aI3199461784
aI0
aI43540
asS'inputPath17031'
p3832
(lp3833
I1
a(lp3834
S'job25254'
p3835
aa(lp3836
I85795
aaI125617986662
aI74037191851
aI0
aI11773
asS'inputPath39'
p3837
(lp3838
I1
a(lp3839
S'job50'
p3840
aa(lp3841
I234
aaI14740276259
aI12670333142
aI0
aI-85561
asS'inputPath4497'
p3842
(lp3843
I1
a(lp3844
S'job6492'
p3845
aa(lp3846
I20464
aaI10078490493
aI47150718516
aI0
aI20230
asS'inputPath11232'
p3847
(lp3848
I1
a(lp3849
S'job16832'
p3850
aa(lp3851
I57808
aaI2164543962
aI2288652245
aI0
aI37344
asS'inputPath6620'
p3852
(lp3853
I1
a(lp3854
S'job9952'
p3855
aa(lp3856
I30917
aaI10739754673
aI4006954785
aI0
aI-26891
asS'inputPath4249'
p3857
(lp3858
I1
a(lp3859
S'job6134'
p3860
aa(lp3861
I19241
aaI2537505639
aI8494921233
aI0
aI-11676
asS'inputPath33'
p3862
(lp3863
I1
a(lp3864
S'job43'
p3865
aa(lp3866
I203
aaI14430382666
aI38936897288
aI0
aI-19038
asS'inputPath2949'
p3867
(lp3868
I1
a(lp3869
S'job4096'
p3870
aa(lp3871
I12782
aaI28795261875
aI46601763280
aI0
aI12579
asS'inputPath4714'
p3872
(lp3873
I1
a(lp3874
S'job6813'
p3875
aa(lp3876
I21716
aaI20595256008
aI35016840555
aI0
aI8934
asS'inputPath4241'
p3877
(lp3878
I1
a(lp3879
S'job6112'
p3880
aa(lp3881
I19204
aaI3966005767
aI5811219657
aI0
aI-2512
asS'inputPath8545'
p3882
(lp3883
I1
a(lp3884
S'job12743'
p3885
aa(lp3886
I40537
aaI4095501113
aI16581288046
aI0
aI21333
asS'inputPath7867'
p3887
(lp3888
I1
a(lp3889
S'job11722'
p3890
aa(lp3891
I35599
aaI13736564770
aI11751599338
aI0
aI-4938
asS'inputPath548'
p3892
(lp3893
I1
a(lp3894
S'job712'
p3895
aa(lp3896
I2410
aaI2507031825
aI2898974559
aI0
aI-33189
asS'inputPath8773'
p3897
(lp3898
I1
a(lp3899
S'job13094'
p3900
aa(lp3901
I41580
aaI24494660794
aI12021063128
aI0
aI39170
asS'inputPath6846'
p3902
(lp3903
I1
a(lp3904
S'job10333'
p3905
aa(lp3906
I32012
aaI10969932133
aI6152591958
aI0
aI-9568
asS'inputPath6845'
p3907
(lp3908
I1
a(lp3909
S'job10332'
p3910
aa(lp3911
I32006
aaI57057557450
aI245388767471
aI0
aI-6
asS'inputPath6842'
p3912
(lp3913
I1
a(lp3914
S'job10327'
p3915
aa(lp3916
I31993
aaI16795415512
aI13350761046
aI0
aI-13
asS'inputPath9553'
p3917
(lp3918
I1
a(lp3919
S'job14156'
p3920
aa(lp3921
I45799
aaI309941304345
aI104717714822
aI0
aI13806
asS'inputPath14079'
p3922
(lp3923
I1
a(lp3924
S'job20765'
p3925
aa(lp3926
I67777
aaI465693874919
aI1245750401975
aI0
aI21978
asS'inputPath12379'
p3927
(lp3928
I1
a(lp3929
S'job18494'
p3930
aa(lp3931
I61805
aaI3451596460
aI4493536004
aI0
aI-5972
asS'inputPath8771'
p3932
(lp3933
I1
a(lp3934
S'job13089'
p3935
aa(lp3936
I41532
aaI28729637199
aI31091341376
aI0
aI-20273
asS'inputPath1765'
p3937
(lp3938
I1
a(lp3939
S'job2351'
p3940
aa(lp3941
I6273
aaI3404431747
aI6381531101
aI0
aI-35259
asS'inputPath10818'
p3942
(lp3943
I1
a(lp3944
S'job16177'
p3945
aa(lp3946
I53922
aaI9735780064
aI4978048843
aI0
aI47649
asS'inputPath9576'
p3947
(lp3948
I1
a(lp3949
S'job14192'
p3950
aa(lp3951
I45915
aaI85811978400
aI579934720555
aI0
aI-8007
asS'inputPath2798'
p3952
(lp3953
I1
a(lp3954
S'job3854'
p3955
aa(lp3956
I12119
aaI21182038967
aI44519640490
aI0
aI-33796
asS'inputPath9574'
p3957
(lp3958
I1
a(lp3959
S'job14189'
p3960
aa(lp3961
I45906
aaI3536956872
aI4534063012
aI0
aI33787
asS'inputPath15063'
p3962
(lp3963
I1
a(lp3964
S'job22273'
p3965
aa(lp3966
I72224
aaI1953951692
aI6900921048
aI0
aI26318
asS'inputPath12645'
p3967
(lp3968
I1
a(lp3969
S'job18890'
p3970
aa(lp3971
I62975
aaI2872179353
aI5320731863
aI0
aI-9249
asS'inputPath13425'
p3972
(lp3973
I1
a(lp3974
S'job19917'
p3975
aa(lp3976
I65060
aaI6528251700
aI40518288420
aI0
aI2085
asS'inputPath3944'
p3977
(lp3978
I1
a(lp3979
S'job22500'
p3980
aa(lp3981
I73440
aaI2645290864
aI2425302779
aI0
aI8380
asS'inputPath3945'
p3982
(lp3983
I1
a(lp3984
S'job5650'
p3985
aa(lp3986
I17875
aaI3217642647
aI3057765008
aI0
aI-55565
asS'inputPath8169'
p3987
(lp3988
I1
a(lp3989
S'job12195'
p3990
aa(lp3991
I38236
aaI14349061466
aI48209324593
aI0
aI20361
asS'inputPath10085'
p3992
(lp3993
I1
a(lp3994
S'job15036'
p3995
aa(lp3996
I48352
aaI49300898658
aI129415225765
aI0
aI10116
asS'inputPath7505'
p3997
(lp3998
I1
a(lp3999
S'job11222'
p4000
aa(lp4001
I34361
aaI63538094111
aI225713581664
aI0
aI-13991
asS'inputPath10547'
p4002
(lp4003
I1
a(lp4004
S'job15791'
p4005
aa(lp4006
I51469
aaI5411404067
aI8806976955
aI0
aI17108
asS'inputPath16351'
p4007
(lp4008
I1
a(lp4009
S'job24201'
p4010
aa(lp4011
I79372
aaI75158579837
aI323565376733
aI0
aI27903
asS'inputPath5443'
p4012
(lp4013
I1
a(lp4014
S'job7952'
p4015
aa(lp4016
I24494
aaI4029678322
aI5332797458
aI0
aI-54878
asS'inputPath14316'
p4017
(lp4018
I1
a(lp4019
S'job21101'
p4020
aa(lp4021
I68880
aaI1005010790837
aI5530519469124
aI0
aI44386
asS'inputPath13429'
p4022
(lp4023
I1
a(lp4024
S'job19921'
p4025
aa(lp4026
I65069
aaI4735885469
aI15007838168
aI0
aI-3811
asS'inputPath8113'
p4027
(lp4028
I1
a(lp4029
S'job12100'
p4030
aa(lp4031
I37409
aaI197168652336
aI1272557327141
aI0
aI-27660
asS'inputPath4624'
p4032
(lp4033
I1
a(lp4034
S'job6677'
p4035
aa(lp4036
I21099
aaI3830923110
aI2505525087
aI0
aI-16310
asS'inputPath10235'
p4037
(lp4038
I1
a(lp4039
S'job15340'
p4040
aa(lp4041
I49464
aaI535262967110
aI5517955536104
aI0
aI28365
asS'inputPath15934'
p4042
(lp4043
I1
a(lp4044
S'job23539'
p4045
aa(lp4046
I77457
aaI8323412637
aI7725486266
aI0
aI27993
asS'inputPath6447'
p4047
(lp4048
I1
a(lp4049
S'job9645'
p4050
aa(lp4051
I29849
aaI1478119595
aI4258098613
aI0
aI-47608
asS'inputPath1048'
p4052
(lp4053
I1
a(lp4054
S'job1313'
p4055
aa(lp4056
I3858
aaI1377780755
aI1578213600
aI0
aI-25991
asS'inputPath1047'
p4057
(lp4058
I1
a(lp4059
S'job1312'
p4060
aa(lp4061
I3858
aaI10008045130
aI9381277429
aI0
aI0
asS'inputPath860'
p4062
(lp4063
I1
a(lp4064
S'job1084'
p4065
aa(lp4066
I3340
aaI116481671981
aI62643698375
aI0
aI-518
asS'inputPath17106'
p4067
(lp4068
I1
a(lp4069
S'job25351'
p4070
aa(lp4071
I86175
aaI114862902672
aI62769577974
aI0
aI82835
asS'inputPath864'
p4072
(lp4073
I1
a(lp4074
S'job1089'
p4075
aa(lp4076
I3362
aaI866551456180
aI1067730332147
aI0
aI-82813
asS'inputPath867'
p4077
(lp4078
I1
a(lp4079
S'job1092'
p4080
aa(lp4081
I3389
aaI3879061443
aI4922716771
aI0
aI27
asS'inputPath866'
p4082
(lp4083
I1
a(lp4084
S'job11074'
p4085
aa(lp4086
I34022
aaI3902252539
aI4955986938
aI0
aI30633
asS'inputPath3333'
p4087
(lp4088
I1
a(lp4089
S'job4737'
p4090
aa(lp4091
I14707
aaI4543000962
aI11952641979
aI0
aI-19315
asS'inputPath4534'
p4092
(lp4093
I1
a(lp4094
S'job6548'
p4095
aa(lp4096
I20661
aaI1878377038
aI1366804646
aI0
aI5954
asS'inputPath3330'
p4097
(lp4098
I1
a(lp4099
S'job4734'
p4100
aa(lp4101
I14623
aaI11907704570
aI7510503008
aI0
aI-6038
asS'inputPath14099'
p4102
(lp4103
I1
a(lp4104
S'job20792'
p4105
aa(lp4106
I67876
aaI1990566673
aI2270342278
aI0
aI53253
asS'inputPath7525'
p4107
(lp4108
I1
a(lp4109
S'job11249'
p4110
aa(lp4111
I34420
aaI111344140162
aI62887440457
aI0
aI-33456
asS'inputPath2240'
p4112
(lp4113
I1
a(lp4114
S'job3010'
p4115
aa(lp4116
I8247
aaI12095061081
aI26531392994
aI0
aI-26173
asS'inputPath42'
p4117
(lp4118
I1
a(lp4119
S'job54'
p4120
aa(lp4121
I239
aaI53500596737
aI62813275869
aI0
aI-8008
asS'inputPath2242'
p4122
(lp4123
I1
a(lp4124
S'job3013'
p4125
aa(lp4126
I8267
aaI46824343630
aI29517069017
aI0
aI8028
asS'inputPath2533'
p4127
(lp4128
I1
a(lp4129
S'job3424'
p4130
aa(lp4131
I10543
aaI32126866367
aI31207390199
aI0
aI2276
asS'inputPath13641'
p4132
(lp4133
I1
a(lp4134
S'job20221'
p4135
aa(lp4136
I65998
aaI2011331666
aI13230762596
aI0
aI55455
asS'inputPath11588'
p4137
(lp4138
I1
a(lp4139
S'job17364'
p4140
aa(lp4141
I58550
aaI237196664740
aI1136293657698
aI0
aI-7448
asS'inputPath13644'
p4142
(lp4143
I1
a(lp4144
S'job20224'
p4145
aa(lp4146
I66006
aaI1386000582
aI1491052576
aI0
aI7456
asS'inputPath13457'
p4147
(lp4148
I1
a(lp4149
S'job19967'
p4150
aa(lp4151
I65148
aaI2690324093
aI6193474050
aI0
aI-858
asS'inputPath4788'
p4152
(lp4153
I1
a(lp4154
S'job6932'
p4155
aa(lp4156
I22154
aaI1332776302
aI3447245198
aI0
aI-42994
asS'inputPath1612'
p4157
(lp4158
I1
a(lp4159
S'job2144'
p4160
aa(lp4161
I5909
aaI10101187093
aI9463361195
aI0
aI-16245
asS'inputPath6170'
p4162
(lp4163
I1
a(lp4164
S'job9222'
p4165
aa(lp4166
I28261
aaI101513977225
aI49029817312
aI0
aI22352
asS'inputPath10727'
p4167
(lp4168
I1
a(lp4169
S'job16049'
p4170
aa(lp4171
I52972
aaI9497468573
aI5190851631
aI0
aI24711
asS'inputPath10726'
p4172
(lp4173
I1
a(lp4174
S'job16048'
p4175
aa(lp4176
I52964
aaI16009400289
aI11399168055
aI0
aI-8
asS'inputPath5925'
p4177
(lp4178
I1
a(lp4179
S'job8768'
p4180
aa(lp4181
I26784
aaI1087658360
aI822134188
aI0
aI-26180
asS'inputPath148'
p4182
(lp4183
I1
a(lp4184
S'job230'
p4185
aa(lp4186
I1281
aaI932137282489
aI1417719306523
aI0
aI-25503
asS'inputPath11635'
p4187
(lp4188
I1
a(lp4189
S'job24524'
p4190
aa(lp4191
I81394
aaI23789555623
aI61646087030
aI0
aI80113
asS'inputPath5922'
p4192
(lp4193
I1
a(lp4194
S'job8763'
p4195
aa(lp4196
I26764
aaI12206204466
aI17442998184
aI0
aI-54630
asS'inputPath11460'
p4197
(lp4198
I1
a(lp4199
S'job17172'
p4200
aa(lp4201
I58247
aaI395648389372
aI1809547855443
aI0
aI31483
asS'inputPath12060'
p4202
(lp4203
I1
a(lp4204
S'job18054'
p4205
aa(lp4206
I60711
aaI2120169944
aI4436110624
aI0
aI2464
asS'inputPath141'
p4207
(lp4208
I1
a(lp4209
S'job219'
p4210
aa(lp4211
I1186
aaI211438606982
aI278419921080
aI0
aI-59525
asS'inputPath146'
p4212
(lp4213
I1
a(lp4214
S'job290'
p4215
aa(lp4216
I1532
aaI61438536432
aI160525625356
aI0
aI346
asS'inputPath147'
p4217
(lp4218
I1
a(lp4219
S'job229'
p4220
aa(lp4221
I1255
aaI61438536432
aI160563353397
aI0
aI-277
asS'inputPath15271'
p4222
(lp4223
I1
a(lp4224
S'job22594'
p4225
aa(lp4226
I74099
aaI286400747141
aI510634483271
aI0
aI72844
asS'inputPath5285'
p4227
(lp4228
I1
a(lp4229
S'job7700'
p4230
aa(lp4231
I23835
aaI260974312823
aI383902442364
aI0
aI-50264
asS'inputPath3936'
p4232
(lp4233
I1
a(lp4234
S'job5635'
p4235
aa(lp4236
I17809
aaI6327439156
aI9440804591
aI0
aI-6026
asS'inputPath8795'
p4237
(lp4238
I1
a(lp4239
S'job13128'
p4240
aa(lp4241
I41836
aaI117967674143
aI66747255714
aI0
aI24027
asS'inputPath3547'
p4242
(lp4243
I1
a(lp4244
S'job5053'
p4245
aa(lp4246
I15803
aaI149905398288
aI156730070231
aI0
aI-26033
asS'inputPath7162'
p4247
(lp4248
I1
a(lp4249
S'job10750'
p4250
aa(lp4251
I32965
aaI2625114068914
aI11187482438609
aI0
aI17162
asS'inputPath3542'
p4252
(lp4253
I1
a(lp4254
S'job5045'
p4255
aa(lp4256
I15768
aaI140153212441
aI1047837771246
aI0
aI-17197
asS'inputPath8144'
p4257
(lp4258
I1
a(lp4259
S'job12157'
p4260
aa(lp4261
I37820
aaI11750400038
aI7481434055
aI0
aI22052
asS'inputPath9050'
p4262
(lp4263
I1
a(lp4264
S'job13482'
p4265
aa(lp4266
I43196
aaI490325873852
aI464431766543
aI0
aI5376
asS'inputPath10646'
p4267
(lp4268
I1
a(lp4269
S'job15921'
p4270
aa(lp4271
I52179
aaI7033641210
aI5919826049
aI0
aI8983
asS'inputPath15222'
p4272
(lp4273
I1
a(lp4274
S'job22518'
p4275
aa(lp4276
I73563
aaI23888017052
aI45425581872
aI0
aI21384
asS'inputPath8028'
p4277
(lp4278
I1
a(lp4279
S'job11971'
p4280
aa(lp4281
I36322
aaI20329857167
aI26239143147
aI0
aI-37241
asS'inputPath3209'
p4282
(lp4283
I1
a(lp4284
S'job4562'
p4285
aa(lp4286
I14127
aaI3361325136
aI3376881435
aI0
aI-22195
asS'inputPath17034'
p4287
(lp4288
I1
a(lp4289
S'job25259'
p4290
aa(lp4291
I85829
aaI114861358225
aI62756850409
aI0
aI71702
asS'inputPath16006'
p4292
(lp4293
I1
a(lp4294
S'job23649'
p4295
aa(lp4296
I77906
aaI5361013829
aI14029570215
aI0
aI-7923
asS'inputPath3753'
p4297
(lp4298
I1
a(lp4299
S'job5340'
p4300
aa(lp4301
I16911
aaI54194110783
aI72444439726
aI0
aI-60995
asS'inputPath15578'
p4302
(lp4303
I1
a(lp4304
S'job23042'
p4305
aa(lp4306
I75756
aaI65993633992
aI148266866466
aI0
aI58845
asS'inputPath2335'
p4307
(lp4308
I1
a(lp4309
S'job3123'
p4310
aa(lp4311
I8830
aaI1253872170304
aI942749646751
aI0
aI-66926
asS'inputPath15269'
p4312
(lp4313
I1
a(lp4314
S'job22591'
p4315
aa(lp4316
I74078
aaI17823150885
aI12713865803
aI0
aI65248
asS'inputPath15268'
p4317
(lp4318
I1
a(lp4319
S'job22589'
p4320
aa(lp4321
I74072
aaI273198506447
aI492093188583
aI0
aI-6
asS'inputPath14381'
p4322
(lp4323
I1
a(lp4324
S'job21205'
p4325
aa(lp4326
I69144
aaI1679540755
aI1000666950
aI0
aI-4928
asS'inputPath6141'
p4327
(lp4328
I1
a(lp4329
S'job9180'
p4330
aa(lp4331
I28062
aaI698384878257
aI2297028021229
aI0
aI-41082
asS'inputPath2333'
p4332
(lp4333
I1
a(lp4334
S'job3121'
p4335
aa(lp4336
I8828
aaI7262788427
aI11365905353
aI0
aI-19234
asS'inputPath82'
p4337
(lp4338
I1
a(lp4339
S'job152'
p4340
aa(lp4341
I815
aaI119609735763
aI109397814785
aI0
aI-8013
asS'inputPath80'
p4342
(lp4343
I1
a(lp4344
S'job107'
p4345
aa(lp4346
I576
aaI4338518467
aI3694257573
aI0
aI-239
asS'inputPath6067'
p4347
(lp4348
I1
a(lp4349
S'job9057'
p4350
aa(lp4351
I27551
aaI2519769263
aI3001593168
aI0
aI26975
asS'inputPath2338'
p4352
(lp4353
I3
a(lp4354
S'job7979'
p4355
aS'job9803'
p4356
aS'job22670'
p4357
aa(lp4358
I24575
aI30426
aI74566
aaI32297515874
aI144368695401
aI49991
aI-2976
asS'inputPath2339'
p4359
(lp4360
I1
a(lp4361
S'job3128'
p4362
aa(lp4363
I8888
aaI30538870863
aI142673745855
aI0
aI-65678
asS'inputPath9702'
p4364
(lp4365
I1
a(lp4366
S'job14399'
p4367
aa(lp4368
I46463
aaI258584009772
aI96508383323
aI0
aI37575
asS'inputPath6063'
p4369
(lp4370
I1
a(lp4371
S'job9050'
p4372
aa(lp4373
I27524
aaI77016147437
aI109884497139
aI0
aI-18939
asS'inputPath14990'
p4374
(lp4375
I1
a(lp4376
S'job22163'
p4377
aa(lp4378
I71851
aaI116566691381
aI62680201173
aI0
aI44327
asS'inputPath10656'
p4379
(lp4380
I1
a(lp4381
S'job15932'
p4382
aa(lp4383
I52248
aaI4545504157
aI6128015109
aI0
aI-19603
asS'inputPath10798'
p4384
(lp4385
I1
a(lp4386
S'job16151'
p4387
aa(lp4388
I53782
aaI7015741359
aI5886085350
aI0
aI1534
asS'inputPath11709'
p4389
(lp4390
I1
a(lp4391
S'job17538'
p4392
aa(lp4393
I59122
aaI3903071869
aI12974266447
aI0
aI5340
asS'inputPath15334'
p4394
(lp4395
I1
a(lp4396
S'job22689'
p4397
aa(lp4398
I74614
aaI11872284001
aI55065253766
aI0
aI15492
asS'inputPath4669'
p4399
(lp4400
I1
a(lp4401
S'job6750'
p4402
aa(lp4403
I21400
aaI5104027326
aI34015884688
aI0
aI-53214
asS'inputPath14528'
p4404
(lp4405
I1
a(lp4406
S'job21446'
p4407
aa(lp4408
I69747
aaI2909657510
aI6317211672
aI0
aI48347
asS'inputPath10658'
p4409
(lp4410
I1
a(lp4411
S'job15934'
p4412
aa(lp4413
I52257
aaI957026760135
aI2844583657879
aI0
aI-17490
asS'inputPath16494'
p4414
(lp4415
I1
a(lp4416
S'job24397'
p4417
aa(lp4418
I80408
aaI80826029599
aI167048772651
aI0
aI28151
asS'inputPath14254'
p4419
(lp4420
I1
a(lp4421
S'job21004'
p4422
aa(lp4423
I68458
aaI22568036853
aI9289037781
aI0
aI-11950
asS'inputPath3686'
p4424
(lp4425
I1
a(lp4426
S'job5256'
p4427
aa(lp4428
I16633
aaI963404636732
aI2625936046844
aI0
aI-51825
asS'inputPath3685'
p4429
(lp4430
I3
a(lp4431
S'job17181'
p4432
aS'job17769'
p4433
aS'job17870'
p4434
aa(lp4435
I58276
aI59896
aI60050
aaI963608431095
aI2626004542479
aI1774
aI41643
asS'inputPath3684'
p4436
(lp4437
I1
a(lp4438
S'job5252'
p4439
aa(lp4440
I16617
aaI1762269107
aI4394823897
aI0
aI-43433
asS'inputPath14497'
p4441
(lp4442
I1
a(lp4443
S'job21403'
p4444
aa(lp4445
I69623
aaI2656478094
aI13605637612
aI0
aI53006
asS'inputPath16070'
p4446
(lp4447
I1
a(lp4448
S'job23741'
p4449
aa(lp4450
I78167
aaI89604634460
aI279863066238
aI0
aI8544
asS'inputPath3725'
p4451
(lp4452
I1
a(lp4453
S'job5305'
p4454
aa(lp4455
I16798
aaI25629294864
aI52705335940
aI0
aI-61369
asS'inputPath3726'
p4456
(lp4457
I1
a(lp4458
S'job5306'
p4459
aa(lp4460
I16807
aaI1657398710
aI1756158875
aI0
aI9
asS'inputPath1532'
p4461
(lp4462
I1
a(lp4463
S'job2020'
p4464
aa(lp4465
I5625
aaI1860472545
aI1890358025
aI0
aI-11182
asS'inputPath1531'
p4466
(lp4467
I1
a(lp4468
S'job2345'
p4469
aa(lp4470
I6262
aaI1860472545
aI1963138875
aI0
aI637
asS'inputPath10986'
p4471
(lp4472
I1
a(lp4473
S'job16444'
p4474
aa(lp4475
I55632
aaI14806008608
aI44822296344
aI0
aI49370
asS'inputPath4725'
p4476
(lp4477
I1
a(lp4478
S'job6828'
p4479
aa(lp4480
I21765
aaI33474822152
aI25839032727
aI0
aI-33867
asS'inputPath10980'
p4481
(lp4482
I1
a(lp4483
S'job16437'
p4484
aa(lp4485
I55624
aaI103389351860
aI98821184939
aI0
aI33859
asS'inputPath4689'
p4486
(lp4487
I1
a(lp4488
S'job6781'
p4489
aa(lp4490
I21606
aaI37096277618
aI26087560311
aI0
aI-34018
asS'inputPath4729'
p4491
(lp4492
I1
a(lp4493
S'job6837'
p4494
aa(lp4495
I21806
aaI31392858020
aI25629355431
aI0
aI200
asS'inputPath10593'
p4496
(lp4497
I1
a(lp4498
S'job15856'
p4499
aa(lp4500
I51848
aaI16192052256
aI11068758554
aI0
aI30042
asS'inputPath12365'
p4501
(lp4502
I1
a(lp4503
S'job18470'
p4504
aa(lp4505
I61767
aaI13384853229
aI4475910764
aI0
aI9919
asS'inputPath10988'
p4506
(lp4507
I1
a(lp4508
S'job16448'
p4509
aa(lp4510
I55665
aaI5878650489
aI18844770761
aI0
aI-6102
asS'inputPath3052'
p4511
(lp4512
I1
a(lp4513
S'job4309'
p4514
aa(lp4515
I13377
aaI89442297591
aI64102326647
aI0
aI-42288
asS'inputPath3053'
p4516
(lp4517
I1
a(lp4518
S'job4299'
p4519
aa(lp4520
I13341
aaI89442392973
aI64106761155
aI0
aI-36
asS'inputPath8824'
p4521
(lp4522
I1
a(lp4523
S'job13173'
p4524
aa(lp4525
I42055
aaI228021847459
aI274815382586
aI0
aI28714
asS'inputPath9021'
p4526
(lp4527
I1
a(lp4528
S'job13426'
p4529
aa(lp4530
I42889
aaI1762444110
aI2194809260
aI0
aI834
asS'inputPath14521'
p4531
(lp4532
I1
a(lp4533
S'job21437'
p4534
aa(lp4535
I69726
aaI51503305785
aI65848606839
aI0
aI26837
asS'inputPath8820'
p4536
(lp4537
I1
a(lp4538
S'job13169'
p4539
aa(lp4540
I42045
aaI24880558330
aI99084421131
aI0
aI-27681
asS'inputPath8821'
p4541
(lp4542
I1
a(lp4543
S'job13168'
p4544
aa(lp4545
I42044
aaI24880558330
aI103610563071
aI0
aI-1
asS'inputPath14545'
p4546
(lp4547
I1
a(lp4548
S'job21475'
p4549
aa(lp4550
I69818
aaI86100694834
aI105639587658
aI0
aI27774
asS'inputPath7300'
p4551
(lp4552
I1
a(lp4553
S'job10946'
p4554
aa(lp4555
I33620
aaI86210052762
aI120244895666
aI0
aI-36198
asS'inputPath12452'
p4556
(lp4557
I1
a(lp4558
S'job18594'
p4559
aa(lp4560
I62007
aaI14024939405
aI38078506668
aI0
aI28387
asS'inputPath9028'
p4561
(lp4562
I1
a(lp4563
S'job13438'
p4564
aa(lp4565
I42966
aaI631914287196
aI1823831846289
aI0
aI-19041
asS'inputPath17066'
p4566
(lp4567
I1
a(lp4568
S'job25298'
p4569
aa(lp4570
I85963
aaI1421948011
aI1984767918
aI0
aI42997
asS'inputPath9182'
p4571
(lp4572
I1
a(lp4573
S'job13656'
p4574
aa(lp4575
I43926
aaI1286570126
aI3179264679
aI0
aI-42037
asS'inputPath9183'
p4576
(lp4577
I1
a(lp4578
S'job13657'
p4579
aa(lp4580
I43927
aaI7388531462
aI31149544199
aI0
aI1
asS'inputPath6668'
p4581
(lp4582
I1
a(lp4583
S'job10024'
p4584
aa(lp4585
I31079
aaI2840407171
aI4800695402
aI0
aI-12848
asS'inputPath17070'
p4586
(lp4587
I1
a(lp4588
S'job25304'
p4589
aa(lp4590
I85981
aaI315127775000
aI226367253244
aI0
aI54902
asS'inputPath12690'
p4591
(lp4592
I1
a(lp4593
S'job18954'
p4594
aa(lp4595
I63095
aaI120466360374
aI45700056535
aI0
aI-22886
asS'inputPath8219'
p4596
(lp4597
I1
a(lp4598
S'job12284'
p4599
aa(lp4600
I38682
aaI3578311733
aI6748014190
aI0
aI-24413
asS'inputPath12695'
p4601
(lp4602
I1
a(lp4603
S'job18960'
p4604
aa(lp4605
I63121
aaI1965870683
aI7048853287
aI0
aI24439
asS'inputPath77'
p4606
(lp4607
I6
a(lp4608
S'job105'
p4609
aS'job114'
p4610
aS'job116'
p4611
aS'job328'
p4612
aS'job372'
p4613
aS'job402'
p4614
aa(lp4615
I576
aI580
aI584
aI1682
aI1777
aI1831
aaI1986594146
aI2032396185
aI1255
aI-62545
asS'inputPath6090'
p4616
(lp4617
I1
a(lp4618
S'job9089'
p4619
aa(lp4620
I27720
aaI2951350271
aI1804368748
aI0
aI25889
asS'inputPath4617'
p4621
(lp4622
I2
a(lp4623
S'job6667'
p4624
aS'job6670'
p4625
aa(lp4626
I21077
aI21081
aaI25024900147
aI95673715700
aI4
aI-6643
asS'inputPath14072'
p4627
(lp4628
I1
a(lp4629
S'job20758'
p4630
aa(lp4631
I67766
aaI1937831859
aI1993410669
aI0
aI46685
asS'inputPath73'
p4632
(lp4633
I1
a(lp4634
S'job94'
p4635
aa(lp4636
I516
aaI116486125855
aI62652292136
aI0
aI-67250
asS'inputPath13786'
p4637
(lp4638
I1
a(lp4639
S'job20415'
p4640
aa(lp4641
I66633
aaI262094628680
aI1645309357264
aI0
aI66117
asS'inputPath6099'
p4642
(lp4643
I1
a(lp4644
S'job9103'
p4645
aa(lp4646
I27791
aaI25892734536
aI47732782413
aI0
aI-38842
asS'inputPath4618'
p4647
(lp4648
I1
a(lp4649
S'job6669'
p4650
aa(lp4651
I21080
aaI25024900147
aI99978415817
aI0
aI-6711
asS'inputPath79'
p4652
(lp4653
I9
a(lp4654
S'job104'
p4655
aS'job108'
p4656
aS'job110'
p4657
aS'job112'
p4658
aS'job117'
p4659
aS'job119'
p4660
aS'job318'
p4661
aS'job319'
p4662
aS'job404'
p4663
aa(lp4664
I575
aI577
aI578
aI578
aI584
aI585
aI1647
aI1648
aI1834
aaI4338518467
aI3490018850
aI1259
aI-20505
asS'inputPath78'
p4665
(lp4666
I1
a(lp4667
S'job103'
p4668
aa(lp4669
I575
aaI1982843445
aI1858774949
aI0
aI-1259
asS'inputPath429'
p4670
(lp4671
I1
a(lp4672
S'job563'
p4673
aa(lp4674
I2105
aaI2961320173
aI10216188264
aI0
aI1530
asS'inputPath6803'
p4675
(lp4676
I1
a(lp4677
S'job10262'
p4678
aa(lp4679
I31729
aaI1533656006
aI2546114898
aI0
aI29624
asS'inputPath4537'
p4680
(lp4681
I1
a(lp4682
S'job6554'
p4683
aa(lp4684
I20674
aaI3374033823
aI2276530186
aI0
aI-11055
asS'inputPath6807'
p4685
(lp4686
I1
a(lp4687
S'job10268'
p4688
aa(lp4689
I31752
aaI977979691931
aI1304718857140
aI0
aI11078
asS'inputPath6804'
p4690
(lp4691
I1
a(lp4692
S'job10263'
p4693
aa(lp4694
I31741
aaI43511227242
aI43926873295
aI0
aI-11
asS'inputPath6805'
p4695
(lp4696
I1
a(lp4697
S'job10264'
p4698
aa(lp4699
I31744
aaI284538452154
aI324751118955
aI0
aI3
asS'inputPath4434'
p4700
(lp4701
I1
a(lp4702
S'job6386'
p4703
aa(lp4704
I20131
aaI2843504362
aI2693490256
aI0
aI-11613
asS'inputPath4437'
p4705
(lp4706
I1
a(lp4707
S'job6390'
p4708
aa(lp4709
I20146
aaI2164769551
aI1928113090
aI0
aI15
asS'inputPath12095'
p4710
(lp4711
I1
a(lp4712
S'job18105'
p4713
aa(lp4714
I60877
aaI2147114058
aI2364670694
aI0
aI40731
asS'inputPath4539'
p4715
(lp4716
I1
a(lp4717
S'job6557'
p4718
aa(lp4719
I20694
aaI3377032836
aI2271413627
aI0
aI-40183
asS'inputPath427'
p4720
(lp4721
I1
a(lp4722
S'job561'
p4723
aa(lp4724
I2101
aaI217652352804
aI278416313966
aI0
aI-18593
asS'inputPath4432'
p4725
(lp4726
I1
a(lp4727
S'job6384'
p4728
aa(lp4729
I20123
aaI2857107054
aI2588777533
aI0
aI18022
asS'inputPath17113'
p4730
(lp4731
I1
a(lp4732
S'job25383'
p4733
aa(lp4734
I86303
aaI114860448206
aI62755608949
aI0
aI66180
asS'inputPath11000'
p4735
(lp4736
I1
a(lp4737
S'job16462'
p4738
aa(lp4739
I55769
aaI65510442953
aI21881200186
aI0
aI-30534
asS'inputPath15177'
p4740
(lp4741
I1
a(lp4742
S'job22708'
p4743
aa(lp4744
I74716
aaI45009947944
aI210544146426
aI0
aI18947
asS'inputPath15176'
p4745
(lp4746
I1
a(lp4747
S'job22448'
p4748
aa(lp4749
I73143
aaI2261109753
aI3439350048
aI0
aI-1573
asS'inputPath15175'
p4750
(lp4751
I1
a(lp4752
S'job22447'
p4753
aa(lp4754
I73141
aaI2242848818
aI3410246819
aI0
aI-2
asS'inputPath11004'
p4755
(lp4756
I1
a(lp4757
S'job16467'
p4758
aa(lp4759
I55808
aaI1571077541
aI786266821
aI0
aI-17333
asS'inputPath5528'
p4760
(lp4761
I1
a(lp4762
S'job8100'
p4763
aa(lp4764
I25028
aaI32820815668
aI184324359185
aI0
aI-30780
asS'inputPath11092'
p4765
(lp4766
I1
a(lp4767
S'job16614'
p4768
aa(lp4769
I56748
aaI2633234367
aI16253702858
aI0
aI31720
asS'inputPath15372'
p4770
(lp4771
I1
a(lp4772
S'job22741'
p4773
aa(lp4774
I74836
aaI1531001239
aI3964715995
aI0
aI18088
asS'inputPath6327'
p4775
(lp4776
I1
a(lp4777
S'job9453'
p4778
aa(lp4779
I29178
aaI10282705090
aI26294395290
aI0
aI-45658
asS'inputPath10272'
p4780
(lp4781
I1
a(lp4782
S'job15413'
p4783
aa(lp4784
I49725
aaI1882673741
aI4204584368
aI0
aI20547
asS'inputPath13308'
p4785
(lp4786
I1
a(lp4787
S'job19768'
p4788
aa(lp4789
I64818
aaI1819995303
aI1855400455
aI0
aI15093
asS'inputPath5523'
p4790
(lp4791
I1
a(lp4792
S'job8095'
p4793
aa(lp4794
I25020
aaI32990457326
aI184439235294
aI0
aI-39798
asS'inputPath5524'
p4795
(lp4796
I1
a(lp4797
S'job8096'
p4798
aa(lp4799
I25021
aaI503786394375
aI876546185707
aI0
aI1
asS'inputPath6897'
p4800
(lp4801
I1
a(lp4802
S'job10406'
p4803
aa(lp4804
I32322
aaI34606043395
aI15892297230
aI0
aI7301
asS'inputPath4448'
p4805
(lp4806
I1
a(lp4807
S'job6500'
p4808
aa(lp4809
I20499
aaI2388068435
aI1401334374
aI0
aI-11823
asS'inputPath2999'
p4810
(lp4811
I1
a(lp4812
S'job4203'
p4813
aa(lp4814
I13041
aaI5813908436
aI4998532753
aI0
aI-7458
asS'inputPath6166'
p4815
(lp4816
I1
a(lp4817
S'job9216'
p4818
aa(lp4819
I28245
aaI2826287193
aI3021841267
aI0
aI15204
asS'inputPath6240'
p4820
(lp4821
I1
a(lp4822
S'job9314'
p4823
aa(lp4824
I28721
aaI5702081088
aI5565026394
aI0
aI476
asS'inputPath13911'
p4825
(lp4826
I1
a(lp4827
S'job20559'
p4828
aa(lp4829
I67054
aaI692960454910
aI1359599094520
aI0
aI38333
asS'inputPath13910'
p4830
(lp4831
I2
a(lp4832
S'job20558'
p4833
aS'job20569'
p4834
aa(lp4835
I67047
aI67099
aaI692263669082
aI1359602695643
aI52
aI-7
asS'inputPath2622'
p4836
(lp4837
I1
a(lp4838
S'job3558'
p4839
aa(lp4840
I11173
aaI28937610083
aI99399378477
aI0
aI-55926
asS'inputPath14672'
p4841
(lp4842
I1
a(lp4843
S'job21659'
p4844
aa(lp4845
I70376
aaI788037043940
aI957282550948
aI0
aI59203
asS'inputPath2621'
p4846
(lp4847
I1
a(lp4848
S'job3561'
p4849
aa(lp4850
I11176
aaI28937610083
aI103685322448
aI0
aI-59200
asS'inputPath6248'
p4851
(lp4852
I1
a(lp4853
S'job9327'
p4854
aa(lp4855
I28779
aaI1255726710
aI826265738
aI0
aI17603
asS'inputPath4446'
p4856
(lp4857
I1
a(lp4858
S'job6400'
p4859
aa(lp4860
I20167
aaI3506844897
aI3082364677
aI0
aI-8612
asS'inputPath6719'
p4861
(lp4862
I1
a(lp4863
S'job10111'
p4864
aa(lp4865
I31276
aaI165434023348
aI98834925202
aI0
aI11109
asS'inputPath3575'
p4866
(lp4867
I1
a(lp4868
S'job5099'
p4869
aa(lp4870
I16021
aaI4827736742
aI14251085515
aI0
aI-15255
asS'inputPath3577'
p4871
(lp4872
I1
a(lp4873
S'job5101'
p4874
aa(lp4875
I16046
aaI4429970613
aI15118843724
aI0
aI25
asS'inputPath3576'
p4876
(lp4877
I5
a(lp4878
S'job5113'
p4879
aS'job5176'
p4880
aS'job5187'
p4881
aS'job16465'
p4882
aS'job16581'
p4883
aa(lp4884
I16107
aI16388
aI16432
aI55793
aI56502
aaI4429970613
aI15206868147
aI40395
aI61
asS'inputPath10947'
p4885
(lp4886
I1
a(lp4887
S'job16381'
p4888
aa(lp4889
I55297
aaI1575614096
aI865879446
aI0
aI-1205
asS'inputPath14935'
p4890
(lp4891
I1
a(lp4892
S'job22082'
p4893
aa(lp4894
I71606
aaI197327656614
aI239834397706
aI0
aI16309
asS'inputPath5255'
p4895
(lp4896
I1
a(lp4897
S'job7644'
p4898
aa(lp4899
I23763
aaI260970728451
aI383885614942
aI0
aI-47843
asS'inputPath5311'
p4900
(lp4901
I1
a(lp4902
S'job7745'
p4903
aa(lp4904
I23967
aaI260960906591
aI383865590274
aI0
aI204
asS'inputPath2476'
p4905
(lp4906
I1
a(lp4907
S'job3337'
p4908
aa(lp4909
I10144
aaI280155635217
aI228890703960
aI0
aI-13823
asS'inputPath2475'
p4910
(lp4911
I1
a(lp4912
S'job3335'
p4913
aa(lp4914
I10138
aaI231779737213
aI189563029496
aI0
aI-6
asS'inputPath17036'
p4915
(lp4916
I1
a(lp4917
S'job25261'
p4918
aa(lp4919
I85832
aaI66300287893
aI317837826283
aI0
aI75694
asS'inputPath16851'
p4920
(lp4921
I1
a(lp4922
S'job24975'
p4923
aa(lp4924
I84361
aaI114860337708
aI62768193336
aI0
aI-1471
asS'inputPath516'
p4925
(lp4926
I1
a(lp4927
S'job676'
p4928
aa(lp4929
I2363
aaI9758604373
aI26217233735
aI0
aI-81998
asS'inputPath11670'
p4930
(lp4931
I1
a(lp4932
S'job17484'
p4933
aa(lp4934
I58875
aaI6738240574561
aI1663180052893
aI0
aI56512
asS'inputPath14271'
p4935
(lp4936
I1
a(lp4937
S'job21036'
p4938
aa(lp4939
I68667
aaI248619088306
aI784899318643
aI0
aI9792
asS'inputPath108'
p4940
(lp4941
I1
a(lp4942
S'job162'
p4943
aa(lp4944
I828
aaI36472405678
aI403625494248
aI0
aI-67839
asS'inputPath16850'
p4945
(lp4946
I1
a(lp4947
S'job24974'
p4948
aa(lp4949
I84361
aaI35136388723
aI105618341124
aI0
aI83533
asS'inputPath106'
p4950
(lp4951
I1
a(lp4952
S'job160'
p4953
aa(lp4954
I828
aaI24424428629
aI205102221732
aI0
aI-83533
asS'inputPath107'
p4955
(lp4956
I1
a(lp4957
S'job161'
p4958
aa(lp4959
I828
aaI42597868630
aI443818156961
aI0
aI0
asS'inputPath104'
p4960
(lp4961
I1
a(lp4962
S'job158'
p4963
aa(lp4964
I827
aaI48993230703
aI307462394566
aI0
aI-1
asS'inputPath105'
p4965
(lp4966
I1
a(lp4967
S'job159'
p4968
aa(lp4969
I827
aaI26784624703
aI247683222725
aI0
aI0
asS'inputPath103'
p4970
(lp4971
I1
a(lp4972
S'job157'
p4973
aa(lp4974
I822
aaI5481561952
aI7391751594
aI0
aI-5
asS'inputPath11076'
p4975
(lp4976
I1
a(lp4977
S'job16588'
p4978
aa(lp4979
I56547
aaI7272156564
aI21243772160
aI0
aI55725
asS'inputPath10372'
p4980
(lp4981
I1
a(lp4982
S'job15552'
p4983
aa(lp4984
I50207
aaI1364975928
aI1810880222
aI0
aI-6340
asS'inputPath16852'
p4985
(lp4986
I1
a(lp4987
S'job24976'
p4988
aa(lp4989
I84364
aaI3071564439
aI4644815907
aI0
aI34157
asS'inputPath11072'
p4990
(lp4991
I1
a(lp4992
S'job16582'
p4993
aa(lp4994
I56504
aaI2253362274
aI1922199105
aI0
aI-27860
asS'inputPath3875'
p4995
(lp4996
I1
a(lp4997
S'job5533'
p4998
aa(lp4999
I17431
aaI115459287193
aI63872144085
aI0
aI-39073
asS'inputPath3971'
p5000
(lp5001
I1
a(lp5002
S'job5693'
p5003
aa(lp5004
I18005
aaI4037716447
aI3041888953
aI0
aI574
asS'inputPath3970'
p5005
(lp5006
I1
a(lp5007
S'job5692'
p5008
aa(lp5009
I18005
aaI1707159577
aI1886883762
aI0
aI0
asS'inputPath16736'
p5010
(lp5011
I1
a(lp5012
S'job24808'
p5013
aa(lp5014
I83579
aaI1079728077
aI1126417442
aI0
aI65574
asS'inputPath3972'
p5015
(lp5016
I1
a(lp5017
S'job5703'
p5018
aa(lp5019
I18013
aaI122587047017
aI121721367776
aI0
aI-65566
asS'inputPath6246'
p5020
(lp5021
I1
a(lp5022
S'job9325'
p5023
aa(lp5024
I28770
aaI50386010387
aI224737121958
aI0
aI10757
asS'inputPath15276'
p5025
(lp5026
I1
a(lp5027
S'job22603'
p5028
aa(lp5029
I74184
aaI5663754510
aI4656495497
aI0
aI45414
asS'inputPath14375'
p5030
(lp5031
I1
a(lp5032
S'job21192'
p5033
aa(lp5034
I69102
aaI197686034377
aI224519915782
aI0
aI-5082
asS'inputPath13335'
p5035
(lp5036
I1
a(lp5037
S'job19801'
p5038
aa(lp5039
I64868
aaI181196720370
aI637861105673
aI0
aI-4234
asS'inputPath3506'
p5040
(lp5041
I1
a(lp5042
S'job5003'
p5043
aa(lp5044
I15651
aaI8311299314
aI28632921813
aI0
aI-49217
asS'inputPath16889'
p5045
(lp5046
I1
a(lp5047
S'job25038'
p5048
aa(lp5049
I84763
aaI32850514631
aI20083503934
aI0
aI69112
asS'inputPath2198'
p5050
(lp5051
I1
a(lp5052
S'job2949'
p5053
aa(lp5054
I7887
aaI5237852531
aI4764329230
aI0
aI-76876
asS'inputPath9689'
p5055
(lp5056
I1
a(lp5057
S'job14403'
p5058
aa(lp5059
I46465
aaI503259184538
aI311330939853
aI0
aI38578
asS'inputPath6431'
p5060
(lp5061
I1
a(lp5062
S'job9618'
p5063
aa(lp5064
I29757
aaI75269139545
aI262620148606
aI0
aI-16708
asS'inputPath7280'
p5065
(lp5066
I1
a(lp5067
S'job10919'
p5068
aa(lp5069
I33569
aaI25027928844
aI44759866260
aI0
aI3812
asS'inputPath6437'
p5070
(lp5071
I1
a(lp5072
S'job9626'
p5073
aa(lp5074
I29782
aaI62252677518
aI25357826253
aI0
aI-3787
asS'inputPath6435'
p5075
(lp5076
I1
a(lp5077
S'job9624'
p5078
aa(lp5079
I29776
aaI2418230802
aI2669535944
aI0
aI-6
asS'inputPath16910'
p5080
(lp5081
I1
a(lp5082
S'job25077'
p5083
aa(lp5084
I85041
aaI539676923653
aI575099669557
aI0
aI55265
asS'inputPath3898'
p5085
(lp5086
I1
a(lp5087
S'job5577'
p5088
aa(lp5089
I17629
aaI1413374993
aI1646507882
aI0
aI-67412
asS'inputPath16911'
p5090
(lp5091
I1
a(lp5092
S'job25079'
p5093
aa(lp5094
I85064
aaI7992352310
aI32890667799
aI0
aI67435
asS'inputPath4691'
p5095
(lp5096
I1
a(lp5097
S'job6783'
p5098
aa(lp5099
I21606
aaI36992970982
aI26027848625
aI0
aI-63458
asS'inputPath16960'
p5100
(lp5101
I1
a(lp5102
S'job25156'
p5103
aa(lp5104
I85471
aaI2972517766
aI8317628210
aI0
aI63865
asS'inputPath3895'
p5105
(lp5106
I1
a(lp5107
S'job5572'
p5108
aa(lp5109
I17582
aaI1680838214
aI1756154422
aI0
aI-67889
asS'inputPath11821'
p5110
(lp5111
I1
a(lp5112
S'job17675'
p5113
aa(lp5114
I59612
aaI2126616280
aI6265648648
aI0
aI42030
asS'inputPath4440'
p5115
(lp5116
I1
a(lp5117
S'job6393'
p5118
aa(lp5119
I20155
aaI1577324605
aI1271628751
aI0
aI-39457
asS'inputPath13777'
p5120
(lp5121
I1
a(lp5122
S'job20392'
p5123
aa(lp5124
I66601
aaI2458201571
aI5617699527
aI0
aI46446
asS'inputPath15589'
p5125
(lp5126
I1
a(lp5127
S'job23054'
p5128
aa(lp5129
I75782
aaI1705728688
aI1204400416
aI0
aI9181
asS'inputPath2276'
p5130
(lp5131
I1
a(lp5132
S'job3056'
p5133
aa(lp5134
I8537
aaI1354290690589
aI991054879183
aI0
aI-67245
asS'inputPath3489'
p5135
(lp5136
I1
a(lp5137
S'job4973'
p5138
aa(lp5139
I15537
aaI159903992961
aI88262170982
aI0
aI7000
asS'inputPath16069'
p5140
(lp5141
I1
a(lp5142
S'job23742'
p5143
aa(lp5144
I78169
aaI89604634460
aI285364802435
aI0
aI62632
asS'inputPath14185'
p5145
(lp5146
I1
a(lp5147
S'job20907'
p5148
aa(lp5149
I68210
aaI100660668973
aI394616192179
aI0
aI-9959
asS'inputPath10616'
p5150
(lp5151
I1
a(lp5152
S'job15885'
p5153
aa(lp5154
I52056
aaI3054655066
aI3082103563
aI0
aI-16154
asS'inputPath10981'
p5155
(lp5156
I1
a(lp5157
S'job16440'
p5158
aa(lp5159
I55630
aaI10235499272
aI98012170001
aI0
aI3574
asS'inputPath15789'
p5160
(lp5161
I1
a(lp5162
S'job23317'
p5163
aa(lp5164
I76527
aaI2672842339
aI2123775156
aI0
aI20897
asS'inputPath1971'
p5165
(lp5166
I1
a(lp5167
S'job2610'
p5168
aa(lp5169
I6625
aaI9997849777
aI9333843348
aI0
aI-69902
asS'inputPath15422'
p5170
(lp5171
I1
a(lp5172
S'job22818'
p5173
aa(lp5174
I75075
aaI6382569411
aI8560969862
aI0
aI68450
asS'inputPath13921'
p5175
(lp5176
I1
a(lp5177
S'job20576'
p5178
aa(lp5179
I67127
aaI2370409323
aI4710574818
aI0
aI-7948
asS'inputPath9681'
p5180
(lp5181
I2
a(lp5182
S'job14364'
p5183
aS'job14368'
p5184
aa(lp5185
I46353
aI46360
aaI69060832262
aI404492300339
aI7
aI-20774
asS'inputPath14213'
p5186
(lp5187
I1
a(lp5188
S'job20939'
p5189
aa(lp5190
I68291
aaI466193231519
aI1245708616995
aI0
aI21931
asS'inputPath211'
p5191
(lp5192
I1
a(lp5193
S'job321'
p5194
aa(lp5195
I1649
aaI1853746378
aI7415106063
aI0
aI-66642
asS'inputPath217'
p5196
(lp5197
I1
a(lp5198
S'job329'
p5199
aa(lp5200
I1687
aaI4152993219
aI16576463146
aI0
aI38
asS'inputPath8836'
p5201
(lp5202
I1
a(lp5203
S'job13187'
p5204
aa(lp5205
I42129
aaI4560331573
aI5895400545
aI0
aI40442
asS'inputPath2996'
p5206
(lp5207
I1
a(lp5208
S'job4195'
p5209
aa(lp5210
I13022
aaI44810155988
aI464295762187
aI0
aI-29107
asS'inputPath14357'
p5211
(lp5212
I10
a(lp5213
S'job21164'
p5214
aS'job21167'
p5215
aS'job21168'
p5216
aS'job21284'
p5217
aS'job21286'
p5218
aS'job21289'
p5219
aS'job21291'
p5220
aS'job21292'
p5221
aS'job21293'
p5222
aS'job21360'
p5223
aa(lp5224
I69018
aI69019
aI69021
aI69324
aI69326
aI69331
aI69332
aI69332
aI69334
aI69553
aaI29576610163
aI32014668349
aI535
aI55996
asS'inputPath14358'
p5225
(lp5226
I1
a(lp5227
S'job21165'
p5228
aa(lp5229
I69018
aaI27520041479
aI25062780441
aI0
aI-535
asS'inputPath15709'
p5230
(lp5231
I1
a(lp5232
S'job23205'
p5233
aa(lp5234
I76184
aaI911788599006
aI478242593919
aI0
aI7166
asS'inputPath2287'
p5235
(lp5236
I1
a(lp5237
S'job3068'
p5238
aa(lp5239
I8593
aaI624664304987
aI854204039732
aI0
aI-67591
asS'inputPath9299'
p5240
(lp5241
I1
a(lp5242
S'job13803'
p5243
aa(lp5244
I44513
aaI1084235576
aI1192565195
aI0
aI35920
asS'inputPath5252'
p5245
(lp5246
I1
a(lp5247
S'job7639'
p5248
aa(lp5249
I23756
aaI1351064307
aI4374527846
aI0
aI-20757
asS'inputPath602'
p5250
(lp5251
I1
a(lp5252
S'job851'
p5253
aa(lp5254
I2780
aaI2358864296
aI1254186207
aI0
aI-20976
asS'inputPath11782'
p5255
(lp5256
I1
a(lp5257
S'job17625'
p5258
aa(lp5259
I59398
aaI1640212057
aI5808310319
aI0
aI56618
asS'inputPath3159'
p5260
(lp5261
I1
a(lp5262
S'job4474'
p5263
aa(lp5264
I13858
aaI1308763546
aI2202843437
aI0
aI-45540
asS'inputPath3158'
p5265
(lp5266
I1
a(lp5267
S'job4472'
p5268
aa(lp5269
I13856
aaI5786587778
aI4952149456
aI0
aI-2
asS'inputPath14438'
p5270
(lp5271
I1
a(lp5272
S'job21305'
p5273
aa(lp5274
I69374
aaI8159105906215
aI1999605637809
aI0
aI55518
asS'inputPath2'
p5275
(lp5276
I1
a(lp5277
S'job1'
p5278
aa(lp5279
I2
aaI20791551476
aI12295202125
aI0
aI-69372
asS'inputPath6744'
p5280
(lp5281
I1
a(lp5282
S'job10154'
p5283
aa(lp5284
I31393
aaI783781212750
aI2217297351510
aI0
aI31391
asS'inputPath8390'
p5285
(lp5286
I1
a(lp5287
S'job12541'
p5288
aa(lp5289
I40075
aaI50402245150
aI79478746358
aI0
aI8682
asS'inputPath13134'
p5290
(lp5291
I1
a(lp5292
S'job19516'
p5293
aa(lp5294
I64205
aaI7917223162
aI21989371699
aI0
aI24130
asS'inputPath3256'
p5295
(lp5296
I1
a(lp5297
S'job4632'
p5298
aa(lp5299
I14292
aaI21769175643
aI17253617231
aI0
aI-49913
asS'inputPath5251'
p5300
(lp5301
I1
a(lp5302
S'job7638'
p5303
aa(lp5304
I23756
aaI260980019360
aI383915703545
aI0
aI9464
asS'inputPath9143'
p5305
(lp5306
I1
a(lp5307
S'job13595'
p5308
aa(lp5309
I43637
aaI1274399097
aI1548909923
aI0
aI19881
asS'inputPath9140'
p5310
(lp5311
I1
a(lp5312
S'job13586'
p5313
aa(lp5314
I43617
aaI218871207216
aI313108324811
aI0
aI-20
asS'inputPath7670'
p5315
(lp5316
I1
a(lp5317
S'job11431'
p5318
aa(lp5319
I34829
aaI21865795468
aI51389949108
aI0
aI-8788
asS'inputPath10893'
p5320
(lp5321
I1
a(lp5322
S'job16296'
p5323
aa(lp5324
I54814
aaI1581003020
aI791443277
aI0
aI19985
asS'inputPath10892'
p5325
(lp5326
I1
a(lp5327
S'job16295'
p5328
aa(lp5329
I54810
aaI52670244126
aI93257514707
aI0
aI-4
asS'inputPath8253'
p5330
(lp5331
I1
a(lp5332
S'job12356'
p5333
aa(lp5334
I39464
aaI115961423713
aI64222236238
aI0
aI-15346
asS'inputPath6117'
p5335
(lp5336
I1
a(lp5337
S'job9143'
p5338
aa(lp5339
I27906
aaI13006372108
aI11661992237
aI0
aI-11558
asS'inputPath11951'
p5340
(lp5341
I1
a(lp5342
S'job17875'
p5343
aa(lp5344
I60059
aaI511068498803
aI2640285973635
aI0
aI32153
asS'inputPath6299'
p5345
(lp5346
I1
a(lp5347
S'job9404'
p5348
aa(lp5349
I29002
aaI8585678147
aI11161914055
aI0
aI-31057
asS'inputPath4659'
p5350
(lp5351
I1
a(lp5352
S'job6734'
p5353
aa(lp5354
I21311
aaI2655018996
aI1880708477
aI0
aI-7691
asS'inputPath12950'
p5355
(lp5356
I1
a(lp5357
S'job19272'
p5358
aa(lp5359
I63610
aaI5958074002
aI4009584226
aI0
aI42299
asS'inputPath11597'
p5360
(lp5361
I1
a(lp5362
S'job17375'
p5363
aa(lp5364
I58586
aaI11542742850014
aI2753840405297
aI0
aI-5024
asS'inputPath15251'
p5365
(lp5366
I1
a(lp5367
S'job22564'
p5368
aa(lp5369
I73906
aaI41710111621
aI60930471649
aI0
aI15320
asS'inputPath10101'
p5370
(lp5371
I1
a(lp5372
S'job15062'
p5373
aa(lp5374
I48458
aaI113904004145
aI63584765795
aI0
aI-25448
asS'inputPath4796'
p5375
(lp5376
I1
a(lp5377
S'job6949'
p5378
aa(lp5379
I22204
aaI604362295358
aI4040250003535
aI0
aI-26254
asS'inputPath11592'
p5380
(lp5381
I1
a(lp5382
S'job17368'
p5383
aa(lp5384
I58558
aaI6812372559442
aI1555276469112
aI0
aI36354
asS'inputPath9509'
p5385
(lp5386
I1
a(lp5387
S'job14091'
p5388
aa(lp5389
I45520
aaI25033576396
aI44761605027
aI0
aI-13038
asS'inputPath14108'
p5390
(lp5391
I1
a(lp5392
S'job20802'
p5393
aa(lp5394
I67923
aaI1476754208
aI2995352668
aI0
aI22403
asS'inputPath11754'
p5395
(lp5396
I1
a(lp5397
S'job17594'
p5398
aa(lp5399
I59298
aaI6289488238
aI17086410035
aI0
aI-8625
asS'inputPath14503'
p5400
(lp5401
I1
a(lp5402
S'job21413'
p5403
aa(lp5404
I69655
aaI6861642188891
aI1765176550734
aI0
aI10357
asS'inputPath4151'
p5405
(lp5406
I1
a(lp5407
S'job5972'
p5408
aa(lp5409
I18821
aaI3946528560
aI5211513058
aI0
aI-50834
asS'inputPath1308'
p5410
(lp5411
I1
a(lp5412
S'job1716'
p5413
aa(lp5414
I4971
aaI6098110379
aI8224271514
aI0
aI-13850
asS'inputPath11181'
p5415
(lp5416
I1
a(lp5417
S'job16758'
p5418
aa(lp5419
I57432
aaI113011219092
aI63320095182
aI0
aI52461
asS'inputPath4093'
p5420
(lp5421
I1
a(lp5422
S'job5880'
p5423
aa(lp5424
I18517
aaI587133967505
aI1254514793151
aI0
aI-38915
asS'inputPath12063'
p5425
(lp5426
I1
a(lp5427
S'job18058'
p5428
aa(lp5429
I60728
aaI322230899605
aI1571509310096
aI0
aI42211
asS'inputPath1111'
p5430
(lp5431
I1
a(lp5432
S'job1408'
p5433
aa(lp5434
I4069
aaI1233016656
aI2480107795
aI0
aI-56659
asS'inputPath1110'
p5435
(lp5436
I2
a(lp5437
S'job6660'
p5438
aS'job12742'
p5439
aa(lp5440
I21051
aI40530
aaI1268165364
aI2675240145
aI19479
aI16982
asS'inputPath2657'
p5441
(lp5442
I1
a(lp5443
S'job3624'
p5444
aa(lp5445
I11429
aaI5835698756
aI4995409573
aI0
aI-29101
asS'inputPath4474'
p5446
(lp5447
I1
a(lp5448
S'job6453'
p5449
aa(lp5450
I20357
aaI3718777546
aI3225592705
aI0
aI8928
asS'inputPath2654'
p5451
(lp5452
I1
a(lp5453
S'job3618'
p5454
aa(lp5455
I11409
aaI49614136619
aI268654805314
aI0
aI-8948
asS'inputPath10976'
p5456
(lp5457
I1
a(lp5458
S'job16430'
p5459
aa(lp5460
I55589
aaI45844046005
aI127531462682
aI0
aI44180
asS'inputPath10977'
p5461
(lp5462
I1
a(lp5463
S'job16432'
p5464
aa(lp5465
I55611
aaI9734872493
aI27761699493
aI0
aI22
asS'inputPath4773'
p5466
(lp5467
I1
a(lp5468
S'job6898'
p5469
aa(lp5470
I22054
aaI1206897592
aI2809539153
aI0
aI-33557
asS'inputPath4771'
p5471
(lp5472
I1
a(lp5473
S'job6896'
p5474
aa(lp5475
I22047
aaI1435058262
aI2232420245
aI0
aI-7
asS'inputPath4710'
p5476
(lp5477
I1
a(lp5478
S'job6803'
p5479
aa(lp5480
I21691
aaI50502900160
aI25899495356
aI0
aI-356
asS'inputPath1283'
p5481
(lp5482
I1
a(lp5483
S'job1671'
p5484
aa(lp5485
I4837
aaI7614743793
aI7271864608
aI0
aI-16854
asS'inputPath3028'
p5486
(lp5487
I1
a(lp5488
S'job4257'
p5489
aa(lp5490
I13202
aaI2721558193
aI1886991731
aI0
aI8365
asS'inputPath14728'
p5491
(lp5492
I1
a(lp5493
S'job21749'
p5494
aa(lp5495
I70568
aaI2033786311
aI6799479168
aI0
aI57366
asS'inputPath16861'
p5496
(lp5497
I1
a(lp5498
S'job24992'
p5499
aa(lp5500
I84442
aaI114860431926
aI62756863447
aI0
aI13874
asS'inputPath673'
p5501
(lp5502
I1
a(lp5503
S'job871'
p5504
aa(lp5505
I2843
aaI82148913660
aI547886574166
aI0
aI-81599
asS'inputPath16907'
p5506
(lp5507
I1
a(lp5508
S'job25071'
p5509
aa(lp5510
I85009
aaI86521076817
aI56324399660
aI0
aI82166
asS'inputPath15330'
p5511
(lp5512
I1
a(lp5513
S'job22684'
p5514
aa(lp5515
I74606
aaI2496634810
aI6662488628
aI0
aI-10403
asS'inputPath3021'
p5516
(lp5517
I1
a(lp5518
S'job4244'
p5519
aa(lp5520
I13137
aaI25482257801
aI212771119667
aI0
aI-61469
asS'inputPath3020'
p5521
(lp5522
I1
a(lp5523
S'job4243'
p5524
aa(lp5525
I13136
aaI38104482152
aI422255308321
aI0
aI-1
asS'inputPath3027'
p5526
(lp5527
I1
a(lp5528
S'job4264'
p5529
aa(lp5530
I13229
aaI2721558193
aI1886288594
aI0
aI93
asS'inputPath6585'
p5531
(lp5532
I1
a(lp5533
S'job9894'
p5534
aa(lp5535
I30759
aaI1111867804
aI4073784849
aI0
aI17530
asS'inputPath15337'
p5536
(lp5537
I1
a(lp5538
S'job22692'
p5539
aa(lp5540
I74636
aaI265544629248
aI477275651455
aI0
aI43877
asS'inputPath4920'
p5541
(lp5542
I1
a(lp5543
S'job7122'
p5544
aa(lp5545
I22816
aaI1296171230
aI741299910
aI0
aI-51820
asS'inputPath6758'
p5546
(lp5547
I1
a(lp5548
S'job10176'
p5549
aa(lp5550
I31447
aaI10353258278
aI42176848892
aI0
aI8631
asS'inputPath5174'
p5551
(lp5552
I1
a(lp5553
S'job7513'
p5554
aa(lp5555
I23589
aaI4651459737
aI5918536418
aI0
aI-7858
asS'inputPath6753'
p5556
(lp5557
I1
a(lp5558
S'job10169'
p5559
aa(lp5560
I31437
aaI714506333787
aI3298053535759
aI0
aI7848
asS'inputPath6750'
p5561
(lp5562
I1
a(lp5563
S'job10162'
p5564
aa(lp5565
I31409
aaI11083984277
aI6140340301
aI0
aI-28
asS'inputPath6751'
p5566
(lp5567
I1
a(lp5568
S'job10163'
p5569
aa(lp5570
I31410
aaI25227278440
aI12348305669
aI0
aI1
asS'inputPath6756'
p5571
(lp5572
I1
a(lp5573
S'job10174'
p5574
aa(lp5575
I31441
aaI178931599660
aI505080161878
aI0
aI31
asS'inputPath14306'
p5576
(lp5577
I1
a(lp5578
S'job21087'
p5579
aa(lp5580
I68828
aaI5048359133
aI21688991258
aI0
aI37387
asS'inputPath6754'
p5581
(lp5582
I1
a(lp5583
S'job10171'
p5584
aa(lp5585
I31438
aaI1265888783055
aI3751741392752
aI0
aI-37390
asS'inputPath6755'
p5586
(lp5587
I1
a(lp5588
S'job10173'
p5589
aa(lp5590
I31440
aaI1307572494010
aI4350297392038
aI0
aI2
asS'inputPath1577'
p5591
(lp5592
I1
a(lp5593
S'job2086'
p5594
aa(lp5595
I5786
aaI10016362693
aI9416250302
aI0
aI-25654
asS'inputPath29'
p5596
(lp5597
I1
a(lp5598
S'job38'
p5599
aa(lp5600
I179
aaI116514872714
aI62737990420
aI0
aI-5607
asS'inputPath15736'
p5601
(lp5602
I1
a(lp5603
S'job23242'
p5604
aa(lp5605
I76310
aaI8345076580
aI7717583996
aI0
aI76131
asS'inputPath13816'
p5606
(lp5607
I1
a(lp5608
S'job20451'
p5609
aa(lp5610
I66741
aaI16450936307
aI51987733644
aI0
aI-9569
asS'inputPath6616'
p5611
(lp5612
I1
a(lp5613
S'job9946'
p5614
aa(lp5615
I30896
aaI2785778519
aI3153093445
aI0
aI-35845
asS'inputPath14000'
p5616
(lp5617
I1
a(lp5618
S'job20669'
p5619
aa(lp5620
I67433
aaI466057844966
aI1245758833652
aI0
aI36537
asS'inputPath21'
p5621
(lp5622
I1
a(lp5623
S'job27'
p5624
aa(lp5625
I122
aaI205911534212
aI278812093573
aI0
aI-67311
asS'inputPath6592'
p5626
(lp5627
I1
a(lp5628
S'job9906'
p5629
aa(lp5630
I30790
aaI11173823748
aI39480552240
aI0
aI30668
asS'inputPath1270'
p5631
(lp5632
I1
a(lp5633
S'job1652'
p5634
aa(lp5635
I4793
aaI10020384665
aI9417442426
aI0
aI-25997
asS'inputPath6595'
p5636
(lp5637
I1
a(lp5638
S'job9910'
p5639
aa(lp5640
I30804
aaI1303234898
aI1500913568
aI0
aI26011
asS'inputPath1579'
p5641
(lp5642
I1
a(lp5643
S'job2090'
p5644
aa(lp5645
I5793
aaI20118925225
aI8998083545
aI0
aI-25011
asS'inputPath13792'
p5646
(lp5647
I1
a(lp5648
S'job20425'
p5649
aa(lp5650
I66673
aaI1375094676433
aI11688521590382
aI0
aI60880
asS'inputPath7974'
p5651
(lp5652
I1
a(lp5653
S'job11880'
p5654
aa(lp5655
I35930
aaI87086279417
aI348357435772
aI0
aI-30743
asS'inputPath17052'
p5656
(lp5657
I1
a(lp5658
S'job25282'
p5659
aa(lp5660
I85920
aaI2537287261
aI2219567336
aI0
aI49990
asS'inputPath2003'
p5661
(lp5662
I1
a(lp5663
S'job2663'
p5664
aa(lp5665
I6754
aaI10072082774
aI9436413061
aI0
aI-79166
asS'inputPath16096'
p5666
(lp5667
I1
a(lp5668
S'job23782'
p5669
aa(lp5670
I78243
aaI1406945669
aI1464353525
aI0
aI71489
asS'inputPath10284'
p5671
(lp5672
I1
a(lp5673
S'job15427'
p5674
aa(lp5675
I49784
aaI1910268456
aI3561039549
aI0
aI-28459
asS'inputPath806'
p5676
(lp5677
I1
a(lp5678
S'job1022'
p5679
aa(lp5680
I3213
aaI36114677783
aI161801088307
aI0
aI-46571
asS'inputPath15129'
p5681
(lp5682
I1
a(lp5683
S'job22379'
p5684
aa(lp5685
I72732
aaI6563553886
aI5788396342
aI0
aI69519
asS'inputPath5617'
p5686
(lp5687
I1
a(lp5688
S'job8233'
p5689
aa(lp5690
I25399
aaI1523528581
aI2014797696
aI0
aI-47333
asS'inputPath410'
p5691
(lp5692
I1
a(lp5693
S'job544'
p5694
aa(lp5695
I2074
aaI33156745237
aI35844241488
aI0
aI-23325
asS'inputPath11177'
p5696
(lp5697
I1
a(lp5698
S'job16752'
p5699
aa(lp5700
I57405
aaI5202263309
aI6832271394
aI0
aI55331
asS'inputPath15673'
p5701
(lp5702
I1
a(lp5703
S'job23160'
p5704
aa(lp5705
I76032
aaI3381390788
aI3516588421
aI0
aI18627
asS'inputPath1598'
p5706
(lp5707
I1
a(lp5708
S'job2115'
p5709
aa(lp5710
I5865
aaI30898242474
aI61584392550
aI0
aI-70167
asS'inputPath12573'
p5711
(lp5712
I1
a(lp5713
S'job18779'
p5714
aa(lp5715
I62563
aaI3998712192
aI5045738891
aI0
aI56698
asS'inputPath1597'
p5716
(lp5717
I1
a(lp5718
S'job2113'
p5719
aa(lp5720
I5856
aaI67199243704
aI245410484509
aI0
aI-56707
asS'inputPath9564'
p5721
(lp5722
I2
a(lp5723
S'job14177'
p5724
aS'job14183'
p5725
aa(lp5726
I45873
aI45879
aaI30319255978
aI68457345908
aI6
aI40017
asS'inputPath15144'
p5727
(lp5728
I1
a(lp5729
S'job22400'
p5730
aa(lp5731
I72810
aaI16833661916
aI39825886600
aI0
aI26931
asS'inputPath15024'
p5732
(lp5733
I1
a(lp5734
S'job22224'
p5735
aa(lp5736
I72030
aaI2101627471
aI3827143128
aI0
aI-780
asS'inputPath12571'
p5737
(lp5738
I1
a(lp5739
S'job18776'
p5740
aa(lp5741
I62554
aaI4945707809
aI3886393883
aI0
aI-9476
asS'inputPath10475'
p5742
(lp5743
I1
a(lp5744
S'job15695'
p5745
aa(lp5746
I50907
aaI1105826212601
aI2666590235428
aI0
aI-11647
asS'inputPath785'
p5747
(lp5748
I1
a(lp5749
S'job1001'
p5750
aa(lp5751
I3175
aaI116483704848
aI62655335134
aI0
aI-47732
asS'inputPath15022'
p5752
(lp5753
I1
a(lp5754
S'job22221'
p5755
aa(lp5756
I72027
aaI5988133982
aI9421518355
aI0
aI68852
asS'inputPath6476'
p5757
(lp5758
I1
a(lp5759
S'job9807'
p5760
aa(lp5761
I30442
aaI4129683236
aI10093374688
aI0
aI-41585
asS'inputPath13458'
p5762
(lp5763
I1
a(lp5764
S'job19973'
p5765
aa(lp5766
I65167
aaI2001028534
aI2285756159
aI0
aI34725
asS'inputPath8609'
p5767
(lp5768
I1
a(lp5769
S'job12869'
p5770
aa(lp5771
I40936
aaI2642402803660
aI11712339713736
aI0
aI-24231
asS'inputPath16765'
p5772
(lp5773
I1
a(lp5774
S'job24847'
p5775
aa(lp5776
I83838
aaI2238768848
aI1320634290
aI0
aI42902
asS'inputPath12021'
p5777
(lp5778
I1
a(lp5779
S'job17987'
p5780
aa(lp5781
I60404
aaI9830082976
aI26492167037
aI0
aI-23434
asS'inputPath9815'
p5782
(lp5783
I1
a(lp5784
S'job14561'
p5785
aa(lp5786
I46904
aaI5102466918
aI8797006152
aI0
aI-13500
asS'inputPath2719'
p5787
(lp5788
I6
a(lp5789
S'job3707'
p5790
aS'job3712'
p5791
aS'job3723'
p5792
aS'job4063'
p5793
aS'job4170'
p5794
aS'job4197'
p5795
aa(lp5796
I11743
aI11748
aI11769
aI12692
aI12943
aI13033
aaI2101171649
aI1983617438
aI1290
aI-35161
asS'inputPath5515'
p5797
(lp5798
I1
a(lp5799
S'job8074'
p5800
aa(lp5801
I24870
aaI32520658397
aI178619923247
aI0
aI11837
asS'inputPath8074'
p5802
(lp5803
I1
a(lp5804
S'job12041'
p5805
aa(lp5806
I36975
aaI5071387131
aI6730583078
aI0
aI12105
asS'inputPath5517'
p5807
(lp5808
I1
a(lp5809
S'job8079'
p5810
aa(lp5811
I24935
aaI32316754209
aI184243099722
aI0
aI-12040
asS'inputPath12018'
p5812
(lp5813
I1
a(lp5814
S'job17984'
p5815
aa(lp5816
I60402
aaI16719367037
aI98283019567
aI0
aI35467
asS'inputPath7908'
p5817
(lp5818
I1
a(lp5819
S'job11784'
p5820
aa(lp5821
I35697
aaI39629436864
aI133684064428
aI0
aI-24705
asS'inputPath16581'
p5822
(lp5823
I1
a(lp5824
S'job24566'
p5825
aa(lp5826
I81737
aaI59361215664
aI214745554048
aI0
aI46040
asS'inputPath2716'
p5827
(lp5828
I1
a(lp5829
S'job3695'
p5830
aa(lp5831
I11708
aaI3773291566
aI3115599918
aI0
aI-70029
asS'inputPath16586'
p5832
(lp5833
I1
a(lp5834
S'job24574'
p5835
aa(lp5836
I81793
aaI78056713595
aI63506085470
aI0
aI70085
asS'inputPath718'
p5837
(lp5838
I1
a(lp5839
S'job930'
p5840
aa(lp5841
I3048
aaI223987216969
aI278389615489
aI0
aI-78745
asS'inputPath2715'
p5842
(lp5843
I8
a(lp5844
S'job3704'
p5845
aS'job3705'
p5846
aS'job3708'
p5847
aS'job3711'
p5848
aS'job3713'
p5849
aS'job4149'
p5850
aS'job4153'
p5851
aS'job4198'
p5852
aa(lp5853
I11738
aI11738
aI11744
aI11747
aI11750
aI12910
aI12913
aI13033
aaI5630785213
aI3741738751
aI1295
aI8690
asS'inputPath13852'
p5854
(lp5855
I1
a(lp5856
S'job20494'
p5857
aa(lp5858
I66894
aaI1317041632
aI3540657833
aI0
aI53861
asS'inputPath7868'
p5859
(lp5860
I1
a(lp5861
S'job11724'
p5862
aa(lp5863
I35599
aaI57054667612
aI110348104232
aI0
aI-31295
asS'inputPath6528'
p5864
(lp5865
I1
a(lp5866
S'job9793'
p5867
aa(lp5868
I30362
aaI73202109360
aI27357788917
aI0
aI-5237
asS'inputPath7497'
p5869
(lp5870
I1
a(lp5871
S'job11213'
p5872
aa(lp5873
I34329
aaI9916343485
aI26379189069
aI0
aI3967
asS'inputPath16629'
p5874
(lp5875
I1
a(lp5876
S'job24646'
p5877
aa(lp5878
I82418
aaI811748918491
aI1059701206257
aI0
aI48089
asS'inputPath16092'
p5879
(lp5880
I1
a(lp5881
S'job23777'
p5882
aa(lp5883
I78230
aaI1715382751
aI1983663667
aI0
aI-4188
asS'inputPath2506'
p5884
(lp5885
I1
a(lp5886
S'job3375'
p5887
aa(lp5888
I10343
aaI1244666423422
aI936326793547
aI0
aI-67887
asS'inputPath15767'
p5889
(lp5890
I1
a(lp5891
S'job23286'
p5892
aa(lp5893
I76436
aaI5564211456
aI20216143172
aI0
aI66093
asS'inputPath13539'
p5894
(lp5895
I1
a(lp5896
S'job20089'
p5897
aa(lp5898
I65387
aaI5282705115
aI6951356313
aI0
aI-11049
asS'inputPath7883'
p5899
(lp5900
I1
a(lp5901
S'job11741'
p5902
aa(lp5903
I35635
aaI65611039031
aI33140999138
aI0
aI-29752
asS'inputPath7882'
p5904
(lp5905
I1
a(lp5906
S'job11740'
p5907
aa(lp5908
I35635
aaI13803020471
aI26677581630
aI0
aI0
asS'inputPath11629'
p5909
(lp5910
I1
a(lp5911
S'job17435'
p5912
aa(lp5913
I58774
aaI9117481785506
aI2189770275687
aI0
aI23139
asS'inputPath7888'
p5914
(lp5915
I1
a(lp5916
S'job11912'
p5917
aa(lp5918
I35997
aaI2443453087
aI1358146261
aI0
aI-22777
asS'inputPath2139'
p5919
(lp5920
I1
a(lp5921
S'job2858'
p5922
aa(lp5923
I7318
aaI3602210432
aI2007782235
aI0
aI-28679
asS'inputPath11788'
p5924
(lp5925
I1
a(lp5926
S'job17632'
p5927
aa(lp5928
I59413
aaI1159355996
aI1183119137
aI0
aI52095
asS'inputPath11621'
p5929
(lp5930
I1
a(lp5931
S'job17416'
p5932
aa(lp5933
I58735
aaI3765876752
aI29058734550
aI0
aI-678
asS'inputPath15103'
p5934
(lp5935
I1
a(lp5936
S'job22331'
p5937
aa(lp5938
I72485
aaI2427299544
aI2990885830
aI0
aI13750
asS'inputPath5953'
p5939
(lp5940
I1
a(lp5941
S'job8848'
p5942
aa(lp5943
I26967
aaI240058415557
aI309209061477
aI0
aI-45518
asS'inputPath5957'
p5944
(lp5945
I1
a(lp5946
S'job8852'
p5947
aa(lp5948
I26998
aaI3027048426
aI5687365837
aI0
aI31
asS'inputPath7408'
p5949
(lp5950
I1
a(lp5951
S'job11101'
p5952
aa(lp5953
I34083
aaI2108155369
aI3269598598
aI0
aI7085
asS'inputPath16642'
p5954
(lp5955
I1
a(lp5956
S'job24664'
p5957
aa(lp5958
I82532
aaI142173453111
aI568463017419
aI0
aI48449
asS'inputPath5718'
p5959
(lp5960
I1
a(lp5961
S'job8838'
p5962
aa(lp5963
I26954
aaI1694099847
aI3163552082
aI0
aI-55578
asS'inputPath11626'
p5964
(lp5965
I1
a(lp5966
S'job17432'
p5967
aa(lp5968
I58756
aaI5520051368
aI39939635624
aI0
aI31802
asS'inputPath8249'
p5969
(lp5970
I1
a(lp5971
S'job12343'
p5972
aa(lp5973
I39332
aaI624280997701
aI1292386151148
aI0
aI-19424
asS'inputPath2439'
p5974
(lp5975
I1
a(lp5976
S'job3287'
p5977
aa(lp5978
I9889
aaI26159180207
aI29523589197
aI0
aI-29443
asS'inputPath16735'
p5979
(lp5980
I1
a(lp5981
S'job24807'
p5982
aa(lp5983
I83564
aaI319858489687
aI227524639962
aI0
aI73675
asS'inputPath2432'
p5984
(lp5985
I1
a(lp5986
S'job3277'
p5987
aa(lp5988
I9838
aaI862485883975
aI1440041523428
aI0
aI-73726
asS'inputPath16769'
p5989
(lp5990
I1
a(lp5991
S'job24851'
p5992
aa(lp5993
I83878
aaI36200529520
aI23226207888
aI0
aI74040
as.
